; ModuleID = 'packethandler.cc'
source_filename = "packethandler.cc"
target datalayout = "e-m:o-i64:64-i128:128-n32:64-S128"
target triple = "arm64-apple-macosx12.0.0"

%"struct.boost::optional_ns::in_place_init_t" = type { i8 }
%"struct.boost::optional_ns::in_place_init_if_t" = type { i8 }
%struct.QClass = type { i16 }
%"struct.std::__1::atomic" = type { %"struct.std::__1::__atomic_base" }
%"struct.std::__1::__atomic_base" = type { %"struct.std::__1::__atomic_base.0" }
%"struct.std::__1::__atomic_base.0" = type { %"struct.std::__1::__cxx_atomic_impl" }
%"struct.std::__1::__cxx_atomic_impl" = type { %"struct.std::__1::__cxx_atomic_base_impl" }
%"struct.std::__1::__cxx_atomic_base_impl" = type { i64 }
%class.NetmaskGroup = type { %class.NetmaskTree }
%class.NetmaskTree = type { %"class.std::__1::unique_ptr", ptr, i64 }
%"class.std::__1::unique_ptr" = type { %"class.std::__1::__compressed_pair" }
%"class.std::__1::__compressed_pair" = type { %"struct.std::__1::__compressed_pair_elem" }
%"struct.std::__1::__compressed_pair_elem" = type { ptr }
%"class.std::__1::set" = type { %"class.std::__1::__tree" }
%"class.std::__1::__tree" = type { ptr, %"class.std::__1::__compressed_pair.2", %"class.std::__1::__compressed_pair.5" }
%"class.std::__1::__compressed_pair.2" = type { %"struct.std::__1::__compressed_pair_elem.3" }
%"struct.std::__1::__compressed_pair_elem.3" = type { %"class.std::__1::__tree_end_node" }
%"class.std::__1::__tree_end_node" = type { ptr }
%"class.std::__1::__compressed_pair.5" = type { %"struct.std::__1::__compressed_pair_elem.6" }
%"struct.std::__1::__compressed_pair_elem.6" = type { i64 }
%"class.std::__1::shared_ptr" = type { ptr, ptr }
%"class.std::__1::shared_ptr.15" = type { ptr, ptr }
%"class.std::__1::basic_string" = type { %"class.std::__1::__compressed_pair.8" }
%"class.std::__1::__compressed_pair.8" = type { %"struct.std::__1::__compressed_pair_elem.9" }
%"struct.std::__1::__compressed_pair_elem.9" = type { %"struct.std::__1::basic_string<char>::__rep" }
%"struct.std::__1::basic_string<char>::__rep" = type { %union.anon.10 }
%union.anon.10 = type { %"struct.std::__1::basic_string<char>::__long" }
%"struct.std::__1::basic_string<char>::__long" = type { ptr, i64, i64 }
%class.DNSName = type { %"class.boost::container::basic_string" }
%"class.boost::container::basic_string" = type { %"class.boost::container::dtl::basic_string_base" }
%"class.boost::container::dtl::basic_string_base" = type { %"struct.boost::container::dtl::basic_string_base<boost::container::new_allocator<char>>::members_holder" }
%"struct.boost::container::dtl::basic_string_base<boost::container::new_allocator<char>>::members_holder" = type { %"union.boost::container::dtl::basic_string_base<boost::container::new_allocator<char>>::repr_t" }
%"union.boost::container::dtl::basic_string_base<boost::container::new_allocator<char>>::repr_t" = type { %"union.boost::move_detail::aligned_struct_wrapper" }
%"union.boost::move_detail::aligned_struct_wrapper" = type { %"struct.boost::move_detail::aligned_struct" }
%"struct.boost::move_detail::aligned_struct" = type { [24 x i8] }
%class.CommunicatorClass = type { i32, i32, %class.LockGuarded, %class.Semaphore, %class.Semaphore, %"class.std::__1::set", %class.NetmaskGroup, %class.NotificationQueue, i64, i8, i8, %class.LockGuarded.218 }
%class.LockGuarded = type { %"class.std::__1::mutex", %"class.std::__1::map.201" }
%"class.std::__1::mutex" = type { %struct._opaque_pthread_mutex_t }
%struct._opaque_pthread_mutex_t = type { i64, [56 x i8] }
%"class.std::__1::map.201" = type { %"class.std::__1::__tree.202" }
%"class.std::__1::__tree.202" = type { ptr, %"class.std::__1::__compressed_pair.203", %"class.std::__1::__compressed_pair.208" }
%"class.std::__1::__compressed_pair.203" = type { %"struct.std::__1::__compressed_pair_elem.3" }
%"class.std::__1::__compressed_pair.208" = type { %"struct.std::__1::__compressed_pair_elem.6" }
%class.Semaphore = type { i32, %struct._opaque_pthread_mutex_t, %struct._opaque_pthread_cond_t, i32, i32 }
%struct._opaque_pthread_cond_t = type { i64, [40 x i8] }
%class.NotificationQueue = type { %"class.std::__1::list" }
%"class.std::__1::list" = type { %"class.std::__1::__list_imp" }
%"class.std::__1::__list_imp" = type { %"struct.std::__1::__list_node_base", %"class.std::__1::__compressed_pair.213" }
%"struct.std::__1::__list_node_base" = type { ptr, ptr }
%"class.std::__1::__compressed_pair.213" = type { %"struct.std::__1::__compressed_pair_elem.6" }
%class.LockGuarded.218 = type { %"class.std::__1::mutex", %"struct.CommunicatorClass::Data" }
%"struct.CommunicatorClass::Data" = type { i64, %"class.boost::multi_index::multi_index_container", %"class.std::__1::set.230", %"class.std::__1::set.240", %"class.std::__1::set.251", %"class.std::__1::map.260" }
%"class.boost::multi_index::multi_index_container" = type { %"class.boost::base_from_member", %"struct.boost::multi_index::detail::header_holder", %"class.boost::multi_index::detail::ordered_index", i64 }
%"class.boost::base_from_member" = type { %"class.std::__1::allocator.219" }
%"class.std::__1::allocator.219" = type { i8 }
%"struct.boost::multi_index::detail::header_holder" = type { ptr }
%"class.boost::multi_index::detail::ordered_index" = type { %"class.boost::multi_index::detail::ordered_index_impl" }
%"class.boost::multi_index::detail::ordered_index_impl" = type { %"class.boost::multi_index::detail::ordered_index.224", %"struct.boost::multi_index::member", %"struct.std::__1::less.228" }
%"class.boost::multi_index::detail::ordered_index.224" = type { %"class.boost::multi_index::detail::ordered_index_impl.225" }
%"class.boost::multi_index::detail::ordered_index_impl.225" = type { %"struct.boost::multi_index::identity", %"struct.std::__1::less.226" }
%"struct.boost::multi_index::identity" = type { i8 }
%"struct.std::__1::less.226" = type { i8 }
%"struct.boost::multi_index::member" = type { i8 }
%"struct.std::__1::less.228" = type { i8 }
%"class.std::__1::set.230" = type { %"class.std::__1::__tree.231" }
%"class.std::__1::__tree.231" = type { ptr, %"class.std::__1::__compressed_pair.232", %"class.std::__1::__compressed_pair.237" }
%"class.std::__1::__compressed_pair.232" = type { %"struct.std::__1::__compressed_pair_elem.3" }
%"class.std::__1::__compressed_pair.237" = type { %"struct.std::__1::__compressed_pair_elem.6" }
%"class.std::__1::set.240" = type { %"class.std::__1::__tree.241" }
%"class.std::__1::__tree.241" = type { ptr, %"class.std::__1::__compressed_pair.242", %"class.std::__1::__compressed_pair.247" }
%"class.std::__1::__compressed_pair.242" = type { %"struct.std::__1::__compressed_pair_elem.3" }
%"class.std::__1::__compressed_pair.247" = type { %"struct.std::__1::__compressed_pair_elem.6" }
%"class.std::__1::set.251" = type { %"class.std::__1::__tree.252" }
%"class.std::__1::__tree.252" = type { ptr, %"class.std::__1::__compressed_pair.253", %"class.std::__1::__compressed_pair.258" }
%"class.std::__1::__compressed_pair.253" = type { %"struct.std::__1::__compressed_pair_elem.3" }
%"class.std::__1::__compressed_pair.258" = type { %"struct.std::__1::__compressed_pair_elem.6" }
%"class.std::__1::map.260" = type { %"class.std::__1::__tree.261" }
%"class.std::__1::__tree.261" = type { ptr, %"class.std::__1::__compressed_pair.262", %"class.std::__1::__compressed_pair.267" }
%"class.std::__1::__compressed_pair.262" = type { %"struct.std::__1::__compressed_pair_elem.3" }
%"class.std::__1::__compressed_pair.267" = type { %"struct.std::__1::__compressed_pair_elem.6" }
%class.AuthZoneCache = type { %"class.std::__1::vector.288", ptr, ptr, ptr, i64, %class.LockGuarded.318 }
%"class.std::__1::vector.288" = type { ptr, ptr, %"class.std::__1::__compressed_pair.312" }
%"class.std::__1::__compressed_pair.312" = type { %"struct.std::__1::__compressed_pair_elem.313" }
%"struct.std::__1::__compressed_pair_elem.313" = type { ptr }
%class.LockGuarded.318 = type { %"class.std::__1::mutex", %"struct.AuthZoneCache::PendingData" }
%"struct.AuthZoneCache::PendingData" = type <{ %"class.std::__1::vector.319", i8, [7 x i8] }>
%"class.std::__1::vector.319" = type { ptr, ptr, %"class.std::__1::__compressed_pair.320" }
%"class.std::__1::__compressed_pair.320" = type { %"struct.std::__1::__compressed_pair_elem.321" }
%"struct.std::__1::__compressed_pair_elem.321" = type { ptr }
%class.StatBag = type <{ %"class.std::__1::map.326", %"class.std::__1::map", %"class.std::__1::map.336", %"class.std::__1::map.346", %"class.std::__1::map.356", %"class.std::__1::map.366", %"class.std::__1::map.376", i8, [7 x i8], %"class.std::__1::set", i8, [7 x i8] }>
%"class.std::__1::map.326" = type { %"class.std::__1::__tree.327" }
%"class.std::__1::__tree.327" = type { ptr, %"class.std::__1::__compressed_pair.328", %"class.std::__1::__compressed_pair.333" }
%"class.std::__1::__compressed_pair.328" = type { %"struct.std::__1::__compressed_pair_elem.3" }
%"class.std::__1::__compressed_pair.333" = type { %"struct.std::__1::__compressed_pair_elem.6" }
%"class.std::__1::map" = type { %"class.std::__1::__tree.82" }
%"class.std::__1::__tree.82" = type { ptr, %"class.std::__1::__compressed_pair.83", %"class.std::__1::__compressed_pair.88" }
%"class.std::__1::__compressed_pair.83" = type { %"struct.std::__1::__compressed_pair_elem.3" }
%"class.std::__1::__compressed_pair.88" = type { %"struct.std::__1::__compressed_pair_elem.6" }
%"class.std::__1::map.336" = type { %"class.std::__1::__tree.337" }
%"class.std::__1::__tree.337" = type { ptr, %"class.std::__1::__compressed_pair.338", %"class.std::__1::__compressed_pair.343" }
%"class.std::__1::__compressed_pair.338" = type { %"struct.std::__1::__compressed_pair_elem.3" }
%"class.std::__1::__compressed_pair.343" = type { %"struct.std::__1::__compressed_pair_elem.6" }
%"class.std::__1::map.346" = type { %"class.std::__1::__tree.347" }
%"class.std::__1::__tree.347" = type { ptr, %"class.std::__1::__compressed_pair.348", %"class.std::__1::__compressed_pair.353" }
%"class.std::__1::__compressed_pair.348" = type { %"struct.std::__1::__compressed_pair_elem.3" }
%"class.std::__1::__compressed_pair.353" = type { %"struct.std::__1::__compressed_pair_elem.6" }
%"class.std::__1::map.356" = type { %"class.std::__1::__tree.357" }
%"class.std::__1::__tree.357" = type { ptr, %"class.std::__1::__compressed_pair.358", %"class.std::__1::__compressed_pair.363" }
%"class.std::__1::__compressed_pair.358" = type { %"struct.std::__1::__compressed_pair_elem.3" }
%"class.std::__1::__compressed_pair.363" = type { %"struct.std::__1::__compressed_pair_elem.6" }
%"class.std::__1::map.366" = type { %"class.std::__1::__tree.367" }
%"class.std::__1::__tree.367" = type { ptr, %"class.std::__1::__compressed_pair.368", %"class.std::__1::__compressed_pair.373" }
%"class.std::__1::__compressed_pair.368" = type { %"struct.std::__1::__compressed_pair_elem.3" }
%"class.std::__1::__compressed_pair.373" = type { %"struct.std::__1::__compressed_pair_elem.6" }
%"class.std::__1::map.376" = type { %"class.std::__1::__tree.377" }
%"class.std::__1::__tree.377" = type { ptr, %"class.std::__1::__compressed_pair.378", %"class.std::__1::__compressed_pair.383" }
%"class.std::__1::__compressed_pair.378" = type { %"struct.std::__1::__compressed_pair_elem.3" }
%"class.std::__1::__compressed_pair.383" = type { %"struct.std::__1::__compressed_pair_elem.6" }
%"class.std::__1::unique_ptr.389" = type { %"class.std::__1::__compressed_pair.390" }
%"class.std::__1::__compressed_pair.390" = type { %"struct.std::__1::__compressed_pair_elem.391" }
%"struct.std::__1::__compressed_pair_elem.391" = type { ptr }
%class.AuthPacketCache = type <{ %"class.std::__1::vector.408", %"struct.std::__1::atomic", ptr, ptr, ptr, i64, i64, i64, i32, i32, i8, [7 x i8] }>
%"class.std::__1::vector.408" = type { ptr, ptr, %"class.std::__1::__compressed_pair.434" }
%"class.std::__1::__compressed_pair.434" = type { %"struct.std::__1::__compressed_pair_elem.435" }
%"struct.std::__1::__compressed_pair_elem.435" = type { ptr }
%"struct.std::__1::piecewise_construct_t" = type { i8 }
%"class.std::__1::locale::id" = type <{ %"struct.std::__1::once_flag", i32, [4 x i8] }>
%"struct.std::__1::once_flag" = type { i64 }
%"class.std::__1::allocator.520" = type { i8 }
%"class.std::__1::allocator.529" = type { i8 }
%"class.std::__1::unique_ptr.16" = type { %"class.std::__1::__compressed_pair.17" }
%"class.std::__1::__compressed_pair.17" = type { %"struct.std::__1::__compressed_pair_elem.18" }
%"struct.std::__1::__compressed_pair_elem.18" = type { ptr }
%class.PacketHandler = type { i8, i8, i8, i8, [4 x i8], %struct.SOAData, %"class.std::__1::unique_ptr.16", %"class.std::__1::unique_ptr.16", %"class.std::__1::unique_ptr.16", %class.UeberBackend, %class.DNSSECKeeper }
%struct.SOAData = type <{ %class.DNSName, %class.DNSName, %class.DNSName, i32, i32, i32, i32, i32, i32, ptr, i32, [4 x i8] }>
%class.UeberBackend = type <{ %"class.std::__1::vector.44", %"class.UeberBackend::handle", %"class.std::__1::vector.52", %"class.std::__1::__wrap_iter", %"struct.UeberBackend::Question", i32, i32, i16, i8, i8, i8, [3 x i8] }>
%"class.std::__1::vector.44" = type { ptr, ptr, %"class.std::__1::__compressed_pair.45" }
%"class.std::__1::__compressed_pair.45" = type { %"struct.std::__1::__compressed_pair_elem.46" }
%"struct.std::__1::__compressed_pair_elem.46" = type { ptr }
%"class.UeberBackend::handle" = type <{ ptr, ptr, ptr, %class.DNSName, i32, %class.QType, [2 x i8], i32, [4 x i8] }>
%class.QType = type { i16 }
%"class.std::__1::vector.52" = type { ptr, ptr, %"class.std::__1::__compressed_pair.54" }
%"class.std::__1::__compressed_pair.54" = type { %"struct.std::__1::__compressed_pair_elem.55" }
%"struct.std::__1::__compressed_pair_elem.55" = type { ptr }
%"class.std::__1::__wrap_iter" = type { ptr }
%"struct.UeberBackend::Question" = type <{ %class.DNSName, i32, %class.QType, [2 x i8] }>
%class.DNSSECKeeper = type <{ ptr, i8, [7 x i8], i64, i8, [7 x i8] }>
%struct.DNSZoneRecord = type { i32, i8, i32, [4 x i8], %class.DNSName, i8, i8, [6 x i8], %struct.DNSRecord }
%struct.DNSRecord = type <{ %class.DNSName, %"class.std::__1::shared_ptr.53", i16, i16, i32, i16, i8, [5 x i8] }>
%"class.std::__1::shared_ptr.53" = type { ptr, ptr }
%"class.std::__1::vector.102" = type { ptr, ptr, %"class.std::__1::__compressed_pair.105" }
%"class.std::__1::__compressed_pair.105" = type { %"struct.std::__1::__compressed_pair_elem.106" }
%"struct.std::__1::__compressed_pair_elem.106" = type { ptr }
%"class.std::__1::__wrap_iter.111" = type { ptr }
%"class.std::__1::shared_ptr.112" = type { ptr, ptr }
%class.DNSPacket = type { %"class.boost::optional", %class.DTime, %class.DNSName, %class.DNSName, %class.DNSName, %"class.std::__1::basic_string", %struct.dnsheader, [4 x i8], %class.TSIGRecordContent, %union.ComboAddress, %"class.std::__1::optional", i32, i32, i16, %class.QType, i8, i8, i8, %"class.std::__1::basic_string", %class.DNSName, %"class.std::__1::basic_string", %"class.std::__1::vector.52", %"class.std::__1::unordered_set", %"class.std::__1::basic_string", %struct.EDNSSubnetOpts, %struct.EDNSCookiesOpt, i32, i32, i32, i16, i8, i8, i8, i8, i8, i8, i8, i8, i8, i8 }
%"class.boost::optional" = type { %"class.boost::optional_detail::optional_base" }
%"class.boost::optional_detail::optional_base" = type { i8, [3 x i8], %"class.boost::optional_detail::aligned_storage" }
%"class.boost::optional_detail::aligned_storage" = type { %"union.boost::optional_detail::aligned_storage<ComboAddress>::dummy_u" }
%"union.boost::optional_detail::aligned_storage<ComboAddress>::dummy_u" = type { [28 x i8] }
%class.DTime = type { %struct.timeval }
%struct.timeval = type { i64, i32 }
%struct.dnsheader = type { [12 x i8] }
%class.TSIGRecordContent = type <{ %class.DNSRecordContent, i16, i16, [4 x i8], %class.DNSName, %"class.std::__1::basic_string", %"class.std::__1::basic_string", i64, i16, [6 x i8] }>
%class.DNSRecordContent = type { ptr }
%union.ComboAddress = type { %struct.sockaddr_in6 }
%struct.sockaddr_in6 = type { i8, i8, i16, i32, %struct.in6_addr, i32 }
%struct.in6_addr = type { %union.anon }
%union.anon = type { [4 x i32] }
%"class.std::__1::optional" = type { %"struct.std::__1::__optional_move_assign_base.base", [3 x i8] }
%"struct.std::__1::__optional_move_assign_base.base" = type { %"struct.std::__1::__optional_copy_assign_base.base" }
%"struct.std::__1::__optional_copy_assign_base.base" = type { %"struct.std::__1::__optional_move_base.base" }
%"struct.std::__1::__optional_move_base.base" = type { %"struct.std::__1::__optional_copy_base.base" }
%"struct.std::__1::__optional_copy_base.base" = type { %"struct.std::__1::__optional_storage_base.base" }
%"struct.std::__1::__optional_storage_base.base" = type { %"struct.std::__1::__optional_destruct_base.base" }
%"struct.std::__1::__optional_destruct_base.base" = type <{ %union.anon.51, i8 }>
%union.anon.51 = type { %union.ComboAddress }
%"class.std::__1::unordered_set" = type { %"class.std::__1::__hash_table" }
%"class.std::__1::__hash_table" = type <{ %"class.std::__1::unique_ptr.60", %"class.std::__1::__compressed_pair.69", %"class.std::__1::__compressed_pair.75", %"class.std::__1::__compressed_pair.78", [4 x i8] }>
%"class.std::__1::unique_ptr.60" = type { %"class.std::__1::__compressed_pair.61" }
%"class.std::__1::__compressed_pair.61" = type { %"struct.std::__1::__compressed_pair_elem.62", %"struct.std::__1::__compressed_pair_elem.63" }
%"struct.std::__1::__compressed_pair_elem.62" = type { ptr }
%"struct.std::__1::__compressed_pair_elem.63" = type { %"class.std::__1::__bucket_list_deallocator" }
%"class.std::__1::__bucket_list_deallocator" = type { %"class.std::__1::__compressed_pair.64" }
%"class.std::__1::__compressed_pair.64" = type { %"struct.std::__1::__compressed_pair_elem.6" }
%"class.std::__1::__compressed_pair.69" = type { %"struct.std::__1::__compressed_pair_elem.70" }
%"struct.std::__1::__compressed_pair_elem.70" = type { %"struct.std::__1::__hash_node_base" }
%"struct.std::__1::__hash_node_base" = type { ptr }
%"class.std::__1::__compressed_pair.75" = type { %"struct.std::__1::__compressed_pair_elem.6" }
%"class.std::__1::__compressed_pair.78" = type { %"struct.std::__1::__compressed_pair_elem.79" }
%"struct.std::__1::__compressed_pair_elem.79" = type { float }
%struct.EDNSSubnetOpts = type { %class.Netmask, %class.Netmask }
%class.Netmask = type <{ %union.ComboAddress, i32, i8, [3 x i8] }>
%struct.EDNSCookiesOpt = type { %"class.std::__1::basic_string", %"class.std::__1::basic_string" }
%"struct.std::__1::pair.103" = type { %struct.DNSSECPrivateKey, %"struct.DNSSECKeeper::KeyMetaData" }
%struct.DNSSECPrivateKey = type <{ %class.DNSKEYRecordContent, %"class.std::__1::shared_ptr.104", i16, i8, [5 x i8] }>
%class.DNSKEYRecordContent = type { %class.DNSRecordContent, i16, i8, i8, %"class.std::__1::basic_string" }
%"class.std::__1::shared_ptr.104" = type { ptr, ptr }
%"struct.DNSSECKeeper::KeyMetaData" = type <{ %"class.std::__1::basic_string", i32, i8, [3 x i8], i32, i8, i8, [2 x i8] }>
%"class.std::__1::allocator.540" = type { i8 }
%"class.std::__1::vector.90" = type { ptr, ptr, %"class.std::__1::__compressed_pair.91" }
%"class.std::__1::__compressed_pair.91" = type { %"struct.std::__1::__compressed_pair_elem.92" }
%"struct.std::__1::__compressed_pair_elem.92" = type { ptr }
%"class.std::__1::__wrap_iter.113" = type { ptr }
%"class.std::__1::shared_ptr.114" = type { ptr, ptr }
%class.DSRecordContent = type { %class.DNSRecordContent, i16, i8, i8, %"class.std::__1::basic_string" }
%"class.std::__1::allocator.551" = type { i8 }
%class.NSEC3PARAMRecordContent = type { %class.DNSRecordContent, i8, i8, i16, %"class.std::__1::basic_string" }
%"class.std::__1::shared_ptr.115" = type { ptr, ptr }
%"class.std::__1::allocator.562" = type { i8 }
%"class.std::__1::basic_string_view" = type { ptr, i64 }
%"class.std::__1::shared_ptr.116" = type { ptr, ptr }
%"struct.boost::container::dtl::basic_string_base<boost::container::new_allocator<char>>::short_t" = type { %"struct.boost::container::dtl::basic_string_base<boost::container::new_allocator<char>>::short_header", [23 x i8] }
%"struct.boost::container::dtl::basic_string_base<boost::container::new_allocator<char>>::short_header" = type { i8 }
%"struct.boost::container::dtl::basic_string_base<boost::container::new_allocator<char>>::long_t" = type { i64, i64, ptr }
%"class.std::__1::shared_ptr.117" = type { ptr, ptr }
%class.CNAMERecordContent = type { %class.DNSRecordContent, %class.DNSName }
%"class.std::__1::shared_ptr.118" = type { ptr, ptr }
%"class.std::__1::shared_ptr.119" = type { ptr, ptr }
%"class.std::__1::allocator.583" = type { i8 }
%class.DNAMERecordContent = type { %class.DNSRecordContent, %class.DNSName }
%"class.std::__1::shared_ptr.120" = type { ptr, ptr }
%class.SVCBBaseRecordContent = type <{ %class.DNSRecordContent, %"class.std::__1::set.121", %class.DNSName, i16, [6 x i8] }>
%"class.std::__1::set.121" = type { %"class.std::__1::__tree.122" }
%"class.std::__1::__tree.122" = type { ptr, %"class.std::__1::__compressed_pair.123", %"class.std::__1::__compressed_pair.128" }
%"class.std::__1::__compressed_pair.123" = type { %"struct.std::__1::__compressed_pair_elem.3" }
%"class.std::__1::__compressed_pair.128" = type { %"struct.std::__1::__compressed_pair_elem.6" }
%"class.std::__1::unordered_set.132" = type { %"class.std::__1::__hash_table.133" }
%"class.std::__1::__hash_table.133" = type <{ %"class.std::__1::unique_ptr.134", %"class.std::__1::__compressed_pair.145", %"class.std::__1::__compressed_pair.151", %"class.std::__1::__compressed_pair.154", [4 x i8] }>
%"class.std::__1::unique_ptr.134" = type { %"class.std::__1::__compressed_pair.135" }
%"class.std::__1::__compressed_pair.135" = type { %"struct.std::__1::__compressed_pair_elem.136", %"struct.std::__1::__compressed_pair_elem.138" }
%"struct.std::__1::__compressed_pair_elem.136" = type { ptr }
%"struct.std::__1::__compressed_pair_elem.138" = type { %"class.std::__1::__bucket_list_deallocator.139" }
%"class.std::__1::__bucket_list_deallocator.139" = type { %"class.std::__1::__compressed_pair.140" }
%"class.std::__1::__compressed_pair.140" = type { %"struct.std::__1::__compressed_pair_elem.6" }
%"class.std::__1::__compressed_pair.145" = type { %"struct.std::__1::__compressed_pair_elem.146" }
%"struct.std::__1::__compressed_pair_elem.146" = type { %"struct.std::__1::__hash_node_base.137" }
%"struct.std::__1::__hash_node_base.137" = type { ptr }
%"class.std::__1::__compressed_pair.151" = type { %"struct.std::__1::__compressed_pair_elem.6" }
%"class.std::__1::__compressed_pair.154" = type { %"struct.std::__1::__compressed_pair_elem.79" }
%"class.std::__1::shared_ptr.159" = type { ptr, ptr }
%"class.std::__1::shared_ptr.160" = type { ptr, ptr }
%"class.std::__1::shared_ptr.161" = type { ptr, ptr }
%"class.std::__1::__wrap_iter.164" = type { ptr }
%"class.std::__1::vector.165" = type { ptr, ptr, %"class.std::__1::__compressed_pair.166" }
%"class.std::__1::__compressed_pair.166" = type { %"struct.std::__1::__compressed_pair_elem.167" }
%"struct.std::__1::__compressed_pair_elem.167" = type { ptr }
%"class.std::__1::__wrap_iter.172" = type { ptr }
%"class.std::__1::shared_ptr.173" = type { ptr, ptr }
%"class.std::__1::vector.174" = type { ptr, ptr, %"class.std::__1::__compressed_pair.175" }
%"class.std::__1::__compressed_pair.175" = type { %"struct.std::__1::__compressed_pair_elem.176" }
%"struct.std::__1::__compressed_pair_elem.176" = type { ptr }
%"class.std::__1::__hash_const_iterator" = type { ptr }
%class.MXRecordContent = type { %class.DNSRecordContent, i16, [6 x i8], %class.DNSName }
%class.SRVRecordContent = type <{ %class.DNSRecordContent, i16, i16, [4 x i8], %class.DNSName, i16, [6 x i8] }>
%class.NSRecordContent = type { %class.DNSRecordContent, %class.DNSName }
%"struct.std::__1::pair.162" = type <{ %"class.std::__1::__hash_const_iterator", i8, [7 x i8] }>
%"struct.std::__1::pair.594" = type <{ %"class.std::__1::__hash_iterator", i8, [7 x i8] }>
%"class.std::__1::__hash_iterator" = type { ptr }
%"class.std::__1::shared_ptr.181" = type { ptr, ptr }
%"class.std::__1::shared_ptr.182" = type { ptr, ptr }
%"struct.std::__1::__hash_node" = type { %"struct.std::__1::__hash_node_base.137", i64, %class.DNSName }
%class.NSECRecordContent = type { %class.DNSRecordContent, %class.DNSName, %class.NSECBitmap }
%class.NSECBitmap = type { %"class.std::__1::unique_ptr.183", %"class.std::__1::set.188" }
%"class.std::__1::unique_ptr.183" = type { %"class.std::__1::__compressed_pair.184" }
%"class.std::__1::__compressed_pair.184" = type { %"struct.std::__1::__compressed_pair_elem.185" }
%"struct.std::__1::__compressed_pair_elem.185" = type { ptr }
%"class.std::__1::set.188" = type { %"class.std::__1::__tree.189" }
%"class.std::__1::__tree.189" = type { ptr, %"class.std::__1::__compressed_pair.190", %"class.std::__1::__compressed_pair.195" }
%"class.std::__1::__compressed_pair.190" = type { %"struct.std::__1::__compressed_pair_elem.3" }
%"class.std::__1::__compressed_pair.195" = type { %"struct.std::__1::__compressed_pair_elem.6" }
%"class.std::__1::shared_ptr.199" = type { ptr, ptr }
%"class.std::__1::allocator.608" = type { i8 }
%class.NSEC3RecordContent = type { %class.DNSRecordContent, i8, i8, i16, %"class.std::__1::basic_string", %"class.std::__1::basic_string", %class.NSECBitmap }
%"class.std::__1::shared_ptr.200" = type { ptr, ptr }
%"class.std::__1::allocator.619" = type { i8 }
%"class.std::__1::vector.270" = type { ptr, ptr, %"class.std::__1::__compressed_pair.271" }
%"class.std::__1::__compressed_pair.271" = type { %"struct.std::__1::__compressed_pair_elem.272" }
%"struct.std::__1::__compressed_pair_elem.272" = type { ptr }
%class.Resolver = type { %"class.std::__1::map.277" }
%"class.std::__1::map.277" = type { %"class.std::__1::__tree.278" }
%"class.std::__1::__tree.278" = type { ptr, %"class.std::__1::__compressed_pair.279", %"class.std::__1::__compressed_pair.284" }
%"class.std::__1::__compressed_pair.279" = type { %"struct.std::__1::__compressed_pair_elem.3" }
%"class.std::__1::__compressed_pair.284" = type { %"struct.std::__1::__compressed_pair_elem.6" }
%"class.std::__1::__wrap_iter.287" = type { ptr }
%struct.DomainInfo = type <{ %class.DNSName, %class.DNSName, i64, %"class.std::__1::basic_string", %"class.std::__1::basic_string", %"class.std::__1::vector.174", ptr, i32, i32, i8, [3 x i8], i32, i8, [7 x i8] }>
%class.DNSResourceRecord = type <{ %class.DNSName, %class.DNSName, %class.DNSName, %"class.std::__1::basic_string", i64, i32, i32, i32, %class.QType, i16, i8, i8, i8, [5 x i8] }>
%struct.sockaddr_in = type { i8, i8, i16, %struct.in_addr, [8 x i8] }
%struct.in_addr = type { i32 }
%"class.std::__1::__tree_const_iterator" = type { ptr }
%class.anon = type { %union.ComboAddress }
%"class.std::__1::__tree_node.519" = type { %"class.std::__1::__tree_node_base.base", %"class.std::__1::basic_string" }
%"class.std::__1::__tree_node_base.base" = type <{ %"class.std::__1::__tree_end_node", ptr, ptr, i8 }>
%"class.std::__1::unique_ptr.97" = type { %"class.std::__1::__compressed_pair.98" }
%"class.std::__1::__compressed_pair.98" = type { %"struct.std::__1::__compressed_pair_elem.99" }
%"struct.std::__1::__compressed_pair_elem.99" = type { ptr }
%"class.std::__1::shared_ptr.407" = type { ptr, ptr }
%"class.std::__1::__map_iterator" = type { %"class.std::__1::__tree_iterator.476" }
%"class.std::__1::__tree_iterator.476" = type { ptr }
%class.LockGuardedHolder = type { %"class.std::__1::lock_guard", ptr }
%"class.std::__1::lock_guard" = type { ptr }
%"class.std::__1::tuple.480" = type { %"struct.std::__1::__tuple_impl.481" }
%"struct.std::__1::__tuple_impl.481" = type { %"class.std::__1::__tuple_leaf.482", %"class.std::__1::__tuple_leaf.483", [6 x i8] }
%"class.std::__1::__tuple_leaf.482" = type { %class.DNSName }
%"class.std::__1::__tuple_leaf.483" = type { %class.QType }
%"struct.std::__1::pair.484" = type { %"class.std::__1::basic_string", %class.LockGuarded.485 }
%class.LockGuarded.485 = type { %"class.std::__1::mutex", %class.StatRing }
%class.StatRing = type { %"class.boost::circular_buffer", %"class.std::__1::basic_string" }
%"class.boost::circular_buffer" = type { ptr, ptr, ptr, ptr, i64 }
%"class.std::__1::__map_iterator.490" = type { %"class.std::__1::__tree_iterator.491" }
%"class.std::__1::__tree_iterator.491" = type { ptr }
%class.LockGuardedHolder.498 = type { %"class.std::__1::lock_guard", ptr }
%struct.SComboAddress = type { %union.ComboAddress }
%"struct.std::__1::pair.499" = type { %"class.std::__1::basic_string", %class.LockGuarded.500 }
%class.LockGuarded.500 = type { %"class.std::__1::mutex", %class.StatRing.492 }
%class.StatRing.492 = type { %"class.boost::circular_buffer.493", %"class.std::__1::basic_string" }
%"class.boost::circular_buffer.493" = type { ptr, ptr, ptr, ptr, i64 }
%"class.std::__1::basic_ostringstream" = type { %"class.std::__1::basic_ostream.base", %"class.std::__1::basic_stringbuf", %"class.std::__1::basic_ios.base" }
%"class.std::__1::basic_ostream.base" = type { ptr }
%"class.std::__1::basic_stringbuf" = type <{ %"class.std::__1::basic_streambuf", %"class.std::__1::basic_string", ptr, i32, [4 x i8] }>
%"class.std::__1::basic_streambuf" = type { ptr, %"class.std::__1::locale", ptr, ptr, ptr, ptr, ptr, ptr }
%"class.std::__1::locale" = type { ptr }
%"class.std::__1::basic_ios.base" = type <{ %"class.std::__1::ios_base", ptr, i32 }>
%"class.std::__1::ios_base" = type { ptr, i32, i64, i64, i32, i32, ptr, ptr, ptr, ptr, i64, i64, ptr, i64, i64, ptr, i64, i64 }
%"struct.std::__1::pair.386" = type <{ %"class.std::__1::__tree_const_iterator.387", i8, [7 x i8] }>
%"class.std::__1::__tree_const_iterator.387" = type { ptr }
%"struct.std::__1::pair.504" = type <{ %"class.std::__1::__tree_iterator.505", i8, [7 x i8] }>
%"class.std::__1::__tree_iterator.505" = type { ptr }
%class.ALIASRecordContent = type { %class.DNSRecordContent, %class.DNSName }
%"class.NetmaskTree<bool>::TreeNode" = type { %"class.std::__1::unique_ptr", %"class.std::__1::unique_ptr", ptr, %"struct.std::__1::pair", i8, i32 }
%"struct.std::__1::pair" = type { %class.Netmask, i8, [3 x i8] }
%"struct.std::__1::__value_init_tag" = type { i8 }
%"struct.boost::container::growth_factor_100" = type { i8 }
%"class.boost::container::exception" = type { %"class.std::exception", ptr }
%"class.std::exception" = type { ptr }
%"struct.std::__1::__overload" = type { i8 }
%"struct.std::__1::pair.442" = type { ptr, ptr }
%"struct.std::__1::pair.443" = type { ptr, ptr }
%"class.std::__1::__shared_count" = type { ptr, i64 }
%"class.std::type_info" = type { ptr, i64 }
%"struct.std::__1::basic_string<char>::__short" = type { [23 x i8], [0 x i8], i8 }
%"struct.std::__1::less.197" = type { i8 }
%"class.std::__1::__tree_const_iterator.445" = type { ptr }
%"class.std::__1::__bit_reference" = type { ptr, i64 }
%"struct.std::__1::pair.444" = type <{ %"class.std::__1::__tree_const_iterator.445", i8, [7 x i8] }>
%"struct.std::__1::pair.447" = type <{ %"class.std::__1::__tree_iterator", i8, [7 x i8] }>
%"class.std::__1::__tree_iterator" = type { ptr }
%"class.std::__1::__tree_node" = type { %"class.std::__1::__tree_node_base.base", i16, [4 x i8] }
%"class.std::__1::__tree_node_base" = type <{ %"class.std::__1::__tree_end_node", ptr, ptr, i8, [7 x i8] }>
%"class.std::__1::unique_ptr.449" = type { %"class.std::__1::__compressed_pair.450" }
%"class.std::__1::__compressed_pair.450" = type { %"struct.std::__1::__compressed_pair_elem.451", %"struct.std::__1::__compressed_pair_elem.452" }
%"struct.std::__1::__compressed_pair_elem.451" = type { ptr }
%"struct.std::__1::__compressed_pair_elem.452" = type { %"class.std::__1::__tree_node_destructor" }
%"class.std::__1::__tree_node_destructor" = type <{ ptr, i8, [7 x i8] }>
%"struct.std::__1::__less" = type { i8 }
%"class.std::__1::__bit_iterator" = type <{ ptr, i32, [4 x i8] }>
%"struct.std::__1::__less.453" = type { i8 }
%"class.std::__1::__bit_const_reference" = type { ptr, i64 }
%"class.std::__1::__wrap_iter.455" = type { ptr }
%"struct.ComboAddress::addressOnlyEqual" = type { i8 }
%"struct.std::__1::pair.462" = type <{ %"class.std::__1::__tree_iterator.463", i8, [7 x i8] }>
%"class.std::__1::__tree_iterator.463" = type { ptr }
%"class.std::__1::tuple.465" = type { %"struct.std::__1::__tuple_impl" }
%"struct.std::__1::__tuple_impl" = type { %"class.std::__1::__tuple_leaf" }
%"class.std::__1::__tuple_leaf" = type { ptr }
%"class.std::__1::tuple.466" = type { i8 }
%"struct.std::__1::pair.461" = type { %"class.std::__1::basic_string", %"class.std::__1::unique_ptr.456" }
%"class.std::__1::unique_ptr.456" = type { %"class.std::__1::__compressed_pair.457" }
%"class.std::__1::__compressed_pair.457" = type { %"struct.std::__1::__compressed_pair_elem.458" }
%"struct.std::__1::__compressed_pair_elem.458" = type { ptr }
%"class.std::__1::unique_ptr.468" = type { %"class.std::__1::__compressed_pair.469" }
%"class.std::__1::__compressed_pair.469" = type { %"struct.std::__1::__compressed_pair_elem.470", %"struct.std::__1::__compressed_pair_elem.471" }
%"struct.std::__1::__compressed_pair_elem.470" = type { ptr }
%"struct.std::__1::__compressed_pair_elem.471" = type { %"class.std::__1::__tree_node_destructor.472" }
%"class.std::__1::__tree_node_destructor.472" = type <{ ptr, i8, [7 x i8] }>
%"class.std::__1::__tree_node.467" = type { %"class.std::__1::__tree_node_base.base", %"struct.std::__1::__value_type" }
%"struct.std::__1::__value_type" = type { %"struct.std::__1::pair.461" }
%"class.std::__1::__tree_node.486" = type { %"class.std::__1::__tree_node_base.base", %"struct.std::__1::__value_type.487" }
%"struct.std::__1::__value_type.487" = type { %"struct.std::__1::pair.484" }
%"class.std::__1::__tree_node.501" = type { %"class.std::__1::__tree_node_base.base", %"struct.std::__1::__value_type.502" }
%"struct.std::__1::__value_type.502" = type { %"struct.std::__1::pair.499" }
%"struct.std::__1::__default_init_tag" = type { i8 }
%"struct.std::__1::less.239" = type { i8 }
%"class.std::__1::__tree_node.503" = type { %"class.std::__1::__tree_node_base.base", [7 x i8], %class.DNSName }
%"class.std::__1::unique_ptr.507" = type { %"class.std::__1::__compressed_pair.508" }
%"class.std::__1::__compressed_pair.508" = type { %"struct.std::__1::__compressed_pair_elem.509", %"struct.std::__1::__compressed_pair_elem.510" }
%"struct.std::__1::__compressed_pair_elem.509" = type { ptr }
%"struct.std::__1::__compressed_pair_elem.510" = type { %"class.std::__1::__tree_node_destructor.511" }
%"class.std::__1::__tree_node_destructor.511" = type <{ ptr, i8, [7 x i8] }>
%"class.boost::movelib::reverse_iterator" = type { ptr }
%class.anon.513 = type { i8 }
%"struct.std::__1::vector<std::__1::string>::_ConstructTransaction" = type { ptr, ptr, ptr }
%"struct.std::__1::__split_buffer" = type { ptr, ptr, ptr, %"class.std::__1::__compressed_pair.514" }
%"class.std::__1::__compressed_pair.514" = type { %"struct.std::__1::__compressed_pair_elem.92", %"struct.std::__1::__compressed_pair_elem.515" }
%"struct.std::__1::__compressed_pair_elem.515" = type { ptr }
%"class.std::__1::reverse_iterator" = type { ptr, ptr }
%"struct.std::__1::__exception_guard_exceptions" = type <{ %"class.std::__1::_AllocatorDestroyRangeReverse", i8, [7 x i8] }>
%"class.std::__1::_AllocatorDestroyRangeReverse" = type { ptr, ptr, ptr }
%"class.std::__1::reverse_iterator.517" = type { [8 x i8], %"class.std::__1::reverse_iterator", %"class.std::__1::reverse_iterator" }
%"class.std::__1::vector<std::__1::string>::__destroy_vector" = type { ptr }
%"class.std::__1::allocator.12" = type { i8 }
%"struct.std::__1::less" = type { i8 }
%"class.std::__1::vector<ComboAddress>::__destroy_vector" = type { ptr }
%"struct.std::__1::__allocation_guard" = type { %"class.std::__1::allocator.523", i64, ptr }
%"class.std::__1::allocator.523" = type { i8 }
%"struct.std::__1::__shared_ptr_emplace" = type { %"class.std::__1::__shared_weak_count", %"struct.std::__1::__shared_ptr_emplace<CDNSKEYRecordContent, std::__1::allocator<CDNSKEYRecordContent>>::_Storage" }
%"class.std::__1::__shared_weak_count" = type { %"class.std::__1::__shared_count", i64 }
%"struct.std::__1::__shared_ptr_emplace<CDNSKEYRecordContent, std::__1::allocator<CDNSKEYRecordContent>>::_Storage" = type { [40 x i8] }
%"struct.std::__1::__allocation_guard.532" = type { %"class.std::__1::allocator.533", i64, ptr }
%"class.std::__1::allocator.533" = type { i8 }
%"struct.std::__1::__shared_ptr_emplace.536" = type { %"class.std::__1::__shared_weak_count", %"struct.std::__1::__shared_ptr_emplace<CDSRecordContent, std::__1::allocator<CDSRecordContent>>::_Storage" }
%"struct.std::__1::__shared_ptr_emplace<CDSRecordContent, std::__1::allocator<CDSRecordContent>>::_Storage" = type { [40 x i8] }
%"class.std::__1::vector<std::__1::pair<DNSSECPrivateKey, DNSSECKeeper::KeyMetaData>>::__destroy_vector" = type { ptr }
%"struct.std::__1::__allocation_guard.543" = type { %"class.std::__1::allocator.544", i64, ptr }
%"class.std::__1::allocator.544" = type { i8 }
%"struct.std::__1::__shared_ptr_emplace.547" = type { %"class.std::__1::__shared_weak_count", %"struct.std::__1::__shared_ptr_emplace<DNSKEYRecordContent, std::__1::allocator<DNSKEYRecordContent>>::_Storage" }
%"struct.std::__1::__shared_ptr_emplace<DNSKEYRecordContent, std::__1::allocator<DNSKEYRecordContent>>::_Storage" = type { [40 x i8] }
%"struct.std::__1::__allocation_guard.554" = type { %"class.std::__1::allocator.555", i64, ptr }
%"class.std::__1::allocator.555" = type { i8 }
%"struct.std::__1::__shared_ptr_emplace.558" = type { %"class.std::__1::__shared_weak_count", %"struct.std::__1::__shared_ptr_emplace<DSRecordContent, std::__1::allocator<DSRecordContent>>::_Storage" }
%"struct.std::__1::__shared_ptr_emplace<DSRecordContent, std::__1::allocator<DSRecordContent>>::_Storage" = type { [40 x i8] }
%"struct.std::__1::__allocation_guard.565" = type { %"class.std::__1::allocator.566", i64, ptr }
%"class.std::__1::allocator.566" = type { i8 }
%"struct.std::__1::__shared_ptr_emplace.569" = type { %"class.std::__1::__shared_weak_count", %"struct.std::__1::__shared_ptr_emplace<NSEC3PARAMRecordContent, std::__1::allocator<NSEC3PARAMRecordContent>>::_Storage" }
%"struct.std::__1::__shared_ptr_emplace<NSEC3PARAMRecordContent, std::__1::allocator<NSEC3PARAMRecordContent>>::_Storage" = type { [40 x i8] }
%"class.std::__1::vector<DNSZoneRecord>::__destroy_vector" = type { ptr }
%"struct.std::__1::vector<DNSZoneRecord>::_ConstructTransaction" = type { ptr, ptr, ptr }
%"struct.std::__1::__split_buffer.573" = type { ptr, ptr, ptr, %"class.std::__1::__compressed_pair.574" }
%"class.std::__1::__compressed_pair.574" = type { %"struct.std::__1::__compressed_pair_elem.55", %"struct.std::__1::__compressed_pair_elem.575" }
%"struct.std::__1::__compressed_pair_elem.575" = type { ptr }
%"class.std::__1::reverse_iterator.577" = type { ptr, ptr }
%"struct.std::__1::__exception_guard_exceptions.579" = type <{ %"class.std::__1::_AllocatorDestroyRangeReverse.580", i8, [7 x i8] }>
%"class.std::__1::_AllocatorDestroyRangeReverse.580" = type { ptr, ptr, ptr }
%"class.std::__1::reverse_iterator.582" = type { [8 x i8], %"class.std::__1::reverse_iterator.577", %"class.std::__1::reverse_iterator.577" }
%"struct.std::__1::__allocation_guard.586" = type { %"class.std::__1::allocator.587", i64, ptr }
%"class.std::__1::allocator.587" = type { i8 }
%"struct.std::__1::__shared_ptr_emplace.590" = type { %"class.std::__1::__shared_weak_count", %"struct.std::__1::__shared_ptr_emplace<CNAMERecordContent, std::__1::allocator<CNAMERecordContent>>::_Storage" }
%"struct.std::__1::__shared_ptr_emplace<CNAMERecordContent, std::__1::allocator<CNAMERecordContent>>::_Storage" = type { [32 x i8] }
%"class.std::__1::unique_ptr.596" = type { %"class.std::__1::__compressed_pair.597" }
%"class.std::__1::__compressed_pair.597" = type { %"struct.std::__1::__compressed_pair_elem.598", %"struct.std::__1::__compressed_pair_elem.599" }
%"struct.std::__1::__compressed_pair_elem.598" = type { ptr }
%"struct.std::__1::__compressed_pair_elem.599" = type { %"class.std::__1::__hash_node_destructor" }
%"class.std::__1::__hash_node_destructor" = type <{ ptr, i8, [7 x i8] }>
%"class.std::__1::vector<DNSZoneRecord *>::__destroy_vector" = type { ptr }
%"struct.std::__1::vector<ComboAddress>::_ConstructTransaction" = type { ptr, ptr, ptr }
%"struct.std::__1::__split_buffer.600" = type { ptr, ptr, ptr, %"class.std::__1::__compressed_pair.601" }
%"class.std::__1::__compressed_pair.601" = type { %"struct.std::__1::__compressed_pair_elem.176", %"struct.std::__1::__compressed_pair_elem.602" }
%"struct.std::__1::__compressed_pair_elem.602" = type { ptr }
%"class.std::__1::reverse_iterator.604" = type { ptr, ptr }
%"struct.std::__1::pair.606" = type { %"class.std::__1::reverse_iterator.604", %"class.std::__1::reverse_iterator.604" }
%"struct.std::__1::__overload.607" = type { i8 }
%"struct.std::__1::__allocation_guard.611" = type { %"class.std::__1::allocator.612", i64, ptr }
%"class.std::__1::allocator.612" = type { i8 }
%"struct.std::__1::__shared_ptr_emplace.615" = type { %"class.std::__1::__shared_weak_count", %"struct.std::__1::__shared_ptr_emplace<NSECRecordContent, std::__1::allocator<NSECRecordContent>>::_Storage" }
%"struct.std::__1::__shared_ptr_emplace<NSECRecordContent, std::__1::allocator<NSECRecordContent>>::_Storage" = type { [64 x i8] }
%"struct.std::__1::__allocation_guard.622" = type { %"class.std::__1::allocator.623", i64, ptr }
%"class.std::__1::allocator.623" = type { i8 }
%"struct.std::__1::__shared_ptr_emplace.626" = type { %"class.std::__1::__shared_weak_count", %"struct.std::__1::__shared_ptr_emplace<NSEC3RecordContent, std::__1::allocator<NSEC3RecordContent>>::_Storage" }
%"struct.std::__1::__shared_ptr_emplace<NSEC3RecordContent, std::__1::allocator<NSEC3RecordContent>>::_Storage" = type { [96 x i8] }
%"class.std::__1::vector<DNSResourceRecord>::__destroy_vector" = type { ptr }
%"class.std::__1::allocator" = type { i8 }
%"struct.std::__1::pair.631" = type <{ %"class.std::__1::__tree_iterator.630", i8, [7 x i8] }>
%"class.std::__1::__tree_iterator.630" = type { ptr }
%"class.std::__1::unique_ptr.633" = type { %"class.std::__1::__compressed_pair.634" }
%"class.std::__1::__compressed_pair.634" = type { %"struct.std::__1::__compressed_pair_elem.635", %"struct.std::__1::__compressed_pair_elem.636" }
%"struct.std::__1::__compressed_pair_elem.635" = type { ptr }
%"struct.std::__1::__compressed_pair_elem.636" = type { %"class.std::__1::__tree_node_destructor.637" }
%"class.std::__1::__tree_node_destructor.637" = type <{ ptr, i8, [7 x i8] }>
%"struct.std::__1::__hash_node.639" = type { %"struct.std::__1::__hash_node_base", i64, i64 }
%"class.std::__1::basic_ios" = type <{ %"class.std::__1::ios_base", ptr, i32, [4 x i8] }>
%"class.std::__1::fpos" = type { %union.__mbstate_t, i64 }
%union.__mbstate_t = type { i64, [120 x i8] }
%"struct.std::__1::__less.641" = type { i8 }

@_ZN5boost11optional_nsL13in_place_initE = internal global %"struct.boost::optional_ns::in_place_init_t" zeroinitializer, align 1
@_ZN5boost11optional_nsL16in_place_init_ifE = internal global %"struct.boost::optional_ns::in_place_init_if_t" zeroinitializer, align 1
@_ZN6QClass2INE = weak_odr constant %struct.QClass { i16 1 }, align 2
@_ZN6QClass5CHAOSE = weak_odr constant %struct.QClass { i16 3 }, align 2
@_ZN6QClass4NONEE = weak_odr local_unnamed_addr constant %struct.QClass { i16 254 }, align 2
@_ZN6QClass3ANYE = weak_odr constant %struct.QClass { i16 255 }, align 2
@_ZN13PacketHandler7s_countE = global %"struct.std::__1::atomic" zeroinitializer, align 8
@_ZN13PacketHandler17s_allowNotifyFromE = global %class.NetmaskGroup zeroinitializer, align 8
@__dso_handle = external hidden global i8
@_ZN13PacketHandler15s_forwardNotifyE = global %"class.std::__1::set" zeroinitializer, align 8
@_ZN13PacketHandler14s_SVCAutohintsE = local_unnamed_addr global i8 0, align 1
@_ZN13PacketHandler22s_deleteCDNSKEYContentE = global %"class.std::__1::shared_ptr" zeroinitializer, align 8
@.str = private unnamed_addr constant [11 x i8] c"0 3 0 AA==\00", align 1
@_ZN13PacketHandler18s_deleteCDSContentE = global %"class.std::__1::shared_ptr.15" zeroinitializer, align 8
@.str.6 = private unnamed_addr constant [9 x i8] c"0 0 0 00\00", align 1
@g_programname = external global %"class.std::__1::basic_string", align 8
@.str.7 = private unnamed_addr constant [17 x i8] c"dname-processing\00", align 1
@.str.8 = private unnamed_addr constant [13 x i8] c"expand-alias\00", align 1
@.str.9 = private unnamed_addr constant [16 x i8] c"log-dns-details\00", align 1
@.str.10 = private unnamed_addr constant [20 x i8] c"lua-prequery-script\00", align 1
@.str.11 = private unnamed_addr constant [28 x i8] c"lua-dnsupdate-policy-script\00", align 1
@_ZTISt13runtime_error = external constant ptr
@.str.12 = private unnamed_addr constant [2 x i8] c"0\00", align 1
@.str.13 = private unnamed_addr constant [14 x i8] c"direct-dnskey\00", align 1
@.str.14 = private unnamed_addr constant [3 x i8] c", \00", align 1
@_ZZNK13PacketHandler14doChaosRequestERK9DNSPacketRNSt3__110unique_ptrIS0_NS3_14default_deleteIS0_EEEER7DNSNameE11versionbind = internal global %class.DNSName zeroinitializer, align 8
@_ZGVZNK13PacketHandler14doChaosRequestERK9DNSPacketRNSt3__110unique_ptrIS0_NS3_14default_deleteIS0_EEEER7DNSNameE11versionbind = internal global i64 0, align 8
@.str.15 = private unnamed_addr constant [14 x i8] c"version.bind.\00", align 1
@_ZZNK13PacketHandler14doChaosRequestERK9DNSPacketRNSt3__110unique_ptrIS0_NS3_14default_deleteIS0_EEEER7DNSNameE11versionpdns = internal global %class.DNSName zeroinitializer, align 8
@_ZGVZNK13PacketHandler14doChaosRequestERK9DNSPacketRNSt3__110unique_ptrIS0_NS3_14default_deleteIS0_EEEER7DNSNameE11versionpdns = internal global i64 0, align 8
@.str.16 = private unnamed_addr constant [14 x i8] c"version.pdns.\00", align 1
@_ZZNK13PacketHandler14doChaosRequestERK9DNSPacketRNSt3__110unique_ptrIS0_NS3_14default_deleteIS0_EEEER7DNSNameE8idserver = internal global %class.DNSName zeroinitializer, align 8
@_ZGVZNK13PacketHandler14doChaosRequestERK9DNSPacketRNSt3__110unique_ptrIS0_NS3_14default_deleteIS0_EEEER7DNSNameE8idserver = internal global i64 0, align 8
@.str.17 = private unnamed_addr constant [11 x i8] c"id.server.\00", align 1
@_ZZNK13PacketHandler14doChaosRequestERK9DNSPacketRNSt3__110unique_ptrIS0_NS3_14default_deleteIS0_EEEER7DNSNameE4mode = internal global %"class.std::__1::basic_string" zeroinitializer, align 8
@_ZGVZNK13PacketHandler14doChaosRequestERK9DNSPacketRNSt3__110unique_ptrIS0_NS3_14default_deleteIS0_EEEER7DNSNameE4mode = internal global i64 0, align 8
@.str.18 = private unnamed_addr constant [15 x i8] c"version-string\00", align 1
@.str.19 = private unnamed_addr constant [5 x i8] c"full\00", align 1
@.str.20 = private unnamed_addr constant [9 x i8] c"powerdns\00", align 1
@.str.21 = private unnamed_addr constant [47 x i8] c"Served by PowerDNS - https://www.powerdns.com/\00", align 1
@.str.22 = private unnamed_addr constant [10 x i8] c"anonymous\00", align 1
@.str.23 = private unnamed_addr constant [2 x i8] c"\22\00", align 1
@_ZZNK13PacketHandler14doChaosRequestERK9DNSPacketRNSt3__110unique_ptrIS0_NS3_14default_deleteIS0_EEEER7DNSNameE2id = internal global %"class.std::__1::basic_string" zeroinitializer, align 8
@_ZGVZNK13PacketHandler14doChaosRequestERK9DNSPacketRNSt3__110unique_ptrIS0_NS3_14default_deleteIS0_EEEER7DNSNameE2id = internal global i64 0, align 8
@.str.24 = private unnamed_addr constant [10 x i8] c"server-id\00", align 1
@.str.25 = private unnamed_addr constant [9 x i8] c"disabled\00", align 1
@g_wildcarddnsname = external global %class.DNSName, align 8
@.str.26 = private unnamed_addr constant [15 x i8] c"Unknown type (\00", align 1
@.str.27 = private unnamed_addr constant [36 x i8] c") for additional service processing\00", align 1
@_ZTVN10__cxxabiv117__class_type_infoE = external global ptr
@_ZTS13PDNSException = linkonce_odr hidden constant [16 x i8] c"13PDNSException\00", align 1
@_ZTI13PDNSException = linkonce_odr hidden constant { ptr, ptr } { ptr getelementptr inbounds (ptr, ptr @_ZTVN10__cxxabiv117__class_type_infoE, i64 2), ptr inttoptr (i64 add (i64 ptrtoint (ptr @_ZTS13PDNSException to i64), i64 -9223372036854775808) to ptr) }, align 8
@.str.28 = private unnamed_addr constant [2 x i8] c".\00", align 1
@.str.29 = private unnamed_addr constant [2 x i8] c"*\00", align 1
@Communicator = external global %class.CommunicatorClass, align 8
@_ZTVN10__cxxabiv120__si_class_type_infoE = external global ptr
@_ZTS17ResolverException = linkonce_odr hidden constant [20 x i8] c"17ResolverException\00", align 1
@_ZTI17ResolverException = linkonce_odr hidden constant { ptr, ptr, ptr } { ptr getelementptr inbounds (ptr, ptr @_ZTVN10__cxxabiv120__si_class_type_infoE, i64 2), ptr inttoptr (i64 add (i64 ptrtoint (ptr @_ZTS17ResolverException to i64), i64 -9223372036854775808) to ptr), ptr @_ZTI13PDNSException }, align 8
@.str.30 = private unnamed_addr constant [31 x i8] c"Error resolving SOA or NS for \00", align 1
@.str.31 = private unnamed_addr constant [6 x i8] c" at: \00", align 1
@.str.32 = private unnamed_addr constant [3 x i8] c": \00", align 1
@.str.33 = private unnamed_addr constant [53 x i8] c"While checking for supermaster, did not find NS for \00", align 1
@.str.34 = private unnamed_addr constant [27 x i8] c"allow-unsigned-autoprimary\00", align 1
@.str.35 = private unnamed_addr constant [30 x i8] c"Received unsigned NOTIFY for \00", align 1
@.str.36 = private unnamed_addr constant [29 x i8] c" from potential supermaster \00", align 1
@.str.37 = private unnamed_addr constant [12 x i8] c". Refusing.\00", align 1
@.str.38 = private unnamed_addr constant [40 x i8] c"Unable to find backend willing to host \00", align 1
@.str.39 = private unnamed_addr constant [28 x i8] c" for potential supermaster \00", align 1
@.str.40 = private unnamed_addr constant [23 x i8] c". Remote nameservers: \00", align 1
@.str.41 = private unnamed_addr constant [18 x i8] c"Failed to create \00", align 1
@g_zoneCache = external global %class.AuthZoneCache, align 8
@.str.42 = private unnamed_addr constant [17 x i8] c"AXFR-MASTER-TSIG\00", align 1
@.str.43 = private unnamed_addr constant [33 x i8] c"Database error trying to create \00", align 1
@.str.44 = private unnamed_addr constant [25 x i8] c"Created new slave zone '\00", align 1
@.str.45 = private unnamed_addr constant [20 x i8] c"' from supermaster \00", align 1
@.str.46 = private unnamed_addr constant [21 x i8] c"Received NOTIFY for \00", align 1
@.str.47 = private unnamed_addr constant [7 x i8] c" from \00", align 1
@.str.48 = private unnamed_addr constant [10 x i8] c"secondary\00", align 1
@.str.49 = private unnamed_addr constant [52 x i8] c" but slave support is disabled in the configuration\00", align 1
@.str.50 = private unnamed_addr constant [28 x i8] c"Received secure NOTIFY for \00", align 1
@.str.51 = private unnamed_addr constant [18 x i8] c", with TSIG key '\00", align 1
@.str.52 = private unnamed_addr constant [2 x i8] c"'\00", align 1
@.str.53 = private unnamed_addr constant [78 x i8] c" but the remote is not providing a TSIG key or in allow-notify-from (Refused)\00", align 1
@.str.54 = private unnamed_addr constant [22 x i8] c"allow-unsigned-notify\00", align 1
@.str.55 = private unnamed_addr constant [41 x i8] c" while a TSIG key was required (Refused)\00", align 1
@.str.56 = private unnamed_addr constant [22 x i8] c": expected TSIG key '\00", align 1
@.str.57 = private unnamed_addr constant [9 x i8] c"', got '\00", align 1
@.str.58 = private unnamed_addr constant [12 x i8] c"' (Refused)\00", align 1
@.str.59 = private unnamed_addr constant [14 x i8] c"autosecondary\00", align 1
@.str.60 = private unnamed_addr constant [56 x i8] c" for which we are not authoritative, trying supermaster\00", align 1
@.str.61 = private unnamed_addr constant [46 x i8] c" for which we are not authoritative (Refused)\00", align 1
@.str.62 = private unnamed_addr constant [34 x i8] c" from trusted-notification-proxy \00", align 1
@.str.63 = private unnamed_addr constant [51 x i8] c", zone does not have any masters defined (Refused)\00", align 1
@.str.64 = private unnamed_addr constant [8 x i8] c"primary\00", align 1
@.str.65 = private unnamed_addr constant [30 x i8] c" but we are primary (Refused)\00", align 1
@.str.66 = private unnamed_addr constant [33 x i8] c" which is not a master (Refused)\00", align 1
@.str.67 = private unnamed_addr constant [33 x i8] c"Relaying notification of domain \00", align 1
@.str.68 = private unnamed_addr constant [5 x i8] c" to \00", align 1
@.str.69 = private unnamed_addr constant [18 x i8] c" - queueing check\00", align 1
@_ZZN13PacketHandler8questionER9DNSPacketE9rdqueries = internal unnamed_addr global ptr null, align 8
@_ZGVZN13PacketHandler8questionER9DNSPacketE9rdqueries = internal global i64 0, align 8
@S = external global %class.StatBag, align 8
@.str.70 = private unnamed_addr constant [11 x i8] c"rd-queries\00", align 1
@.str.71 = private unnamed_addr constant [16 x i8] c"noerror-packets\00", align 1
@.str.72 = private unnamed_addr constant [16 x i8] c"noerror-queries\00", align 1
@_ZTISt11range_error = external constant ptr
@.str.73 = private unnamed_addr constant [44 x i8] c"Received an answer (non-query) packet from \00", align 1
@.str.74 = private unnamed_addr constant [11 x i8] c", dropping\00", align 1
@.str.75 = private unnamed_addr constant [16 x i8] c"corrupt-packets\00", align 1
@.str.76 = private unnamed_addr constant [16 x i8] c"remotes-corrupt\00", align 1
@.str.77 = private unnamed_addr constant [38 x i8] c"Received truncated query packet from \00", align 1
@.str.78 = private unnamed_addr constant [57 x i8] c"Received a TSIG signed message with a non-validating key\00", align 1
@_ZTS11DBException = linkonce_odr hidden constant [14 x i8] c"11DBException\00", align 1
@_ZTI11DBException = linkonce_odr hidden constant { ptr, ptr, ptr } { ptr getelementptr inbounds (ptr, ptr @_ZTVN10__cxxabiv120__si_class_type_infoE, i64 2), ptr inttoptr (i64 add (i64 ptrtoint (ptr @_ZTS11DBException to i64), i64 -9223372036854775808) to ptr), ptr @_ZTI13PDNSException }, align 8
@_ZTISt9exception = external constant ptr
@.str.79 = private unnamed_addr constant [35 x i8] c"Received a malformed qdomain from \00", align 1
@.str.80 = private unnamed_addr constant [4 x i8] c", '\00", align 1
@.str.81 = private unnamed_addr constant [20 x i8] c"': sending servfail\00", align 1
@.str.82 = private unnamed_addr constant [17 x i8] c"servfail-packets\00", align 1
@.str.83 = private unnamed_addr constant [18 x i8] c"dnsupdate-queries\00", align 1
@.str.84 = private unnamed_addr constant [18 x i8] c"dnsupdate-refused\00", align 1
@.str.85 = private unnamed_addr constant [18 x i8] c"dnsupdate-answers\00", align 1
@.str.86 = private unnamed_addr constant [23 x i8] c"incoming-notifications\00", align 1
@.str.87 = private unnamed_addr constant [28 x i8] c"Received an unknown opcode \00", align 1
@.str.88 = private unnamed_addr constant [6 x i8] c" for \00", align 1
@g_anyToTcp = external local_unnamed_addr global i8, align 1
@.str.89 = private unnamed_addr constant [36 x i8] c"Abort CNAME chain resolution after \00", align 1
@.str.90 = private unnamed_addr constant [51 x i8] c" redirects, sending out servfail. Initial query: '\00", align 1
@.str.91 = private unnamed_addr constant [24 x i8] c"Direct RRSIG query for \00", align 1
@DP = external global %"class.std::__1::unique_ptr.389", align 8
@.str.92 = private unnamed_addr constant [24 x i8] c"ALIAS record found for \00", align 1
@.str.93 = private unnamed_addr constant [35 x i8] c", but ALIAS expansion is disabled.\00", align 1
@.str.94 = private unnamed_addr constant [22 x i8] c"Should not get here (\00", align 1
@.str.95 = private unnamed_addr constant [2 x i8] c"|\00", align 1
@.str.96 = private unnamed_addr constant [37 x i8] c"): please run pdnsutil rectify-zone \00", align 1
@PC = external global %class.AuthPacketCache, align 8
@.str.97 = private unnamed_addr constant [38 x i8] c"Exception building answer packet for \00", align 1
@.str.98 = private unnamed_addr constant [2 x i8] c"/\00", align 1
@.str.99 = private unnamed_addr constant [3 x i8] c" (\00", align 1
@.str.100 = private unnamed_addr constant [23 x i8] c") sending out servfail\00", align 1
@.str.101 = private unnamed_addr constant [17 x i8] c"servfail-queries\00", align 1
@.str.102 = private unnamed_addr constant [58 x i8] c"Backend reported permanent error which prevented lookup (\00", align 1
@.str.103 = private unnamed_addr constant [12 x i8] c"), aborting\00", align 1
@.str.104 = private unnamed_addr constant [52 x i8] c"Backend reported condition which prevented lookup (\00", align 1
@.str.105 = private unnamed_addr constant [11 x i8] c"string.hpp\00", align 1
@__func__._ZN5boost9container3dtl17basic_string_baseINS0_13new_allocatorIcEEE15priv_short_sizeEm = private unnamed_addr constant [16 x i8] c"priv_short_size\00", align 1
@.str.107 = private unnamed_addr constant [11 x i8] c"sz <= mask\00", align 1
@.str.108 = private unnamed_addr constant [42 x i8] c"basic_string::reserve max_size() exceeded\00", align 1
@_ZTSN5boost9container12length_errorE = linkonce_odr hidden constant [33 x i8] c"N5boost9container12length_errorE\00", align 1
@_ZTSN5boost9container9exceptionE = linkonce_odr hidden constant [29 x i8] c"N5boost9container9exceptionE\00", align 1
@_ZTIN5boost9container9exceptionE = linkonce_odr hidden constant { ptr, ptr, ptr } { ptr getelementptr inbounds (ptr, ptr @_ZTVN10__cxxabiv120__si_class_type_infoE, i64 2), ptr inttoptr (i64 add (i64 ptrtoint (ptr @_ZTSN5boost9container9exceptionE to i64), i64 -9223372036854775808) to ptr), ptr @_ZTISt9exception }, align 8
@_ZTIN5boost9container12length_errorE = linkonce_odr hidden constant { ptr, ptr, ptr } { ptr getelementptr inbounds (ptr, ptr @_ZTVN10__cxxabiv120__si_class_type_infoE, i64 2), ptr inttoptr (i64 add (i64 ptrtoint (ptr @_ZTSN5boost9container12length_errorE to i64), i64 -9223372036854775808) to ptr), ptr @_ZTIN5boost9container9exceptionE }, align 8
@_ZTVN5boost9container12length_errorE = linkonce_odr unnamed_addr constant { [5 x ptr] } { [5 x ptr] [ptr null, ptr @_ZTIN5boost9container12length_errorE, ptr @_ZN5boost9container12length_errorD1Ev, ptr @_ZN5boost9container12length_errorD0Ev, ptr @_ZNK5boost9container9exception4whatEv] }, align 8
@_ZTVN5boost9container9exceptionE = linkonce_odr unnamed_addr constant { [5 x ptr] } { [5 x ptr] [ptr null, ptr @_ZTIN5boost9container9exceptionE, ptr @_ZN5boost9container9exceptionD1Ev, ptr @_ZN5boost9container9exceptionD0Ev, ptr @_ZNK5boost9container9exception4whatEv] }, align 8
@_ZTVSt9exception = external unnamed_addr constant { [5 x ptr] }, align 8
@.str.109 = private unnamed_addr constant [35 x i8] c"unknown boost::container exception\00", align 1
@.str.110 = private unnamed_addr constant [46 x i8] c"version 1 allocator without allocate_new flag\00", align 1
@_ZTSN5boost9container11logic_errorE = linkonce_odr hidden constant [32 x i8] c"N5boost9container11logic_errorE\00", align 1
@_ZTIN5boost9container11logic_errorE = linkonce_odr hidden constant { ptr, ptr, ptr } { ptr getelementptr inbounds (ptr, ptr @_ZTVN10__cxxabiv120__si_class_type_infoE, i64 2), ptr inttoptr (i64 add (i64 ptrtoint (ptr @_ZTSN5boost9container11logic_errorE to i64), i64 -9223372036854775808) to ptr), ptr @_ZTIN5boost9container9exceptionE }, align 8
@_ZTVN5boost9container11logic_errorE = linkonce_odr unnamed_addr constant { [5 x ptr] } { [5 x ptr] [ptr null, ptr @_ZTIN5boost9container11logic_errorE, ptr @_ZN5boost9container11logic_errorD1Ev, ptr @_ZN5boost9container11logic_errorD0Ev, ptr @_ZNK5boost9container9exception4whatEv] }, align 8
@_ZTSN5boost9container9bad_allocE = linkonce_odr hidden constant [29 x i8] c"N5boost9container9bad_allocE\00", align 1
@_ZTIN5boost9container9bad_allocE = linkonce_odr hidden constant { ptr, ptr, ptr } { ptr getelementptr inbounds (ptr, ptr @_ZTVN10__cxxabiv120__si_class_type_infoE, i64 2), ptr inttoptr (i64 add (i64 ptrtoint (ptr @_ZTSN5boost9container9bad_allocE to i64), i64 -9223372036854775808) to ptr), ptr @_ZTIN5boost9container9exceptionE }, align 8
@.str.111 = private unnamed_addr constant [35 x i8] c"boost::container::bad_alloc thrown\00", align 1
@_ZTVN5boost9container9bad_allocE = linkonce_odr unnamed_addr constant { [5 x ptr] } { [5 x ptr] [ptr null, ptr @_ZTIN5boost9container9bad_allocE, ptr @_ZN5boost9container9bad_allocD1Ev, ptr @_ZN5boost9container9bad_allocD0Ev, ptr @_ZNK5boost9container9exception4whatEv] }, align 8
@__func__._ZN5boost9container3dtl17basic_string_baseINS0_13new_allocatorIcEEE14priv_long_sizeEm = private unnamed_addr constant [15 x i8] c"priv_long_size\00", align 1
@_ZTV15DSRecordContent = external unnamed_addr constant { [8 x ptr] }, align 8
@_ZTV23NSEC3PARAMRecordContent = external unnamed_addr constant { [8 x ptr] }, align 8
@_ZTV16DNSRecordContent = linkonce_odr unnamed_addr constant { [8 x ptr] } { [8 x ptr] [ptr null, ptr @_ZTI16DNSRecordContent, ptr @__cxa_pure_virtual, ptr @_ZN16DNSRecordContentD1Ev, ptr @_ZN16DNSRecordContentD0Ev, ptr @__cxa_pure_virtual, ptr @_ZNK16DNSRecordContenteqERKS_, ptr @__cxa_pure_virtual] }, align 8
@_ZTS16DNSRecordContent = linkonce_odr hidden constant [19 x i8] c"16DNSRecordContent\00", align 1
@_ZTI16DNSRecordContent = linkonce_odr hidden constant { ptr, ptr } { ptr getelementptr inbounds (ptr, ptr @_ZTVN10__cxxabiv117__class_type_infoE, i64 2), ptr inttoptr (i64 add (i64 ptrtoint (ptr @_ZTS16DNSRecordContent to i64), i64 -9223372036854775808) to ptr) }, align 8
@dns_tolower_table = external local_unnamed_addr constant [256 x i8], align 1
@.str.113 = private unnamed_addr constant [24 x i8] c"resulting name too long\00", align 1
@.str.114 = private unnamed_addr constant [44 x i8] c"basic_string::replace out of range position\00", align 1
@.str.115 = private unnamed_addr constant [42 x i8] c"basic_string::replace max_size() exceeded\00", align 1
@_ZTSN5boost9container12out_of_rangeE = linkonce_odr hidden constant [33 x i8] c"N5boost9container12out_of_rangeE\00", align 1
@_ZTIN5boost9container12out_of_rangeE = linkonce_odr hidden constant { ptr, ptr, ptr } { ptr getelementptr inbounds (ptr, ptr @_ZTVN10__cxxabiv120__si_class_type_infoE, i64 2), ptr inttoptr (i64 add (i64 ptrtoint (ptr @_ZTSN5boost9container12out_of_rangeE to i64), i64 -9223372036854775808) to ptr), ptr @_ZTIN5boost9container9exceptionE }, align 8
@_ZTVN5boost9container12out_of_rangeE = linkonce_odr unnamed_addr constant { [5 x ptr] } { [5 x ptr] [ptr null, ptr @_ZTIN5boost9container12out_of_rangeE, ptr @_ZN5boost9container12out_of_rangeD1Ev, ptr @_ZN5boost9container12out_of_rangeD0Ev, ptr @_ZNK5boost9container9exception4whatEv] }, align 8
@_ZTV18CNAMERecordContent = external unnamed_addr constant { [8 x ptr] }, align 8
@__func__._ZNK5boost9container12basic_stringIcNSt3__111char_traitsIcEEvEixEm = private unnamed_addr constant [11 x i8] c"operator[]\00", align 1
@.str.116 = private unnamed_addr constant [17 x i8] c"this->size() > n\00", align 1
@_ZTV17NSECRecordContent = external unnamed_addr constant { [8 x ptr] }, align 8
@.str.117 = private unnamed_addr constant [33 x i8] c"bitset set argument out of range\00", align 1
@_ZTISt12out_of_range = external constant ptr
@_ZTVSt12out_of_range = external unnamed_addr constant { [5 x ptr] }, align 8
@_ZTISt20bad_array_new_length = external constant ptr
@_ZTV18NSEC3RecordContent = external unnamed_addr constant { [8 x ptr] }, align 8
@.str.118 = private unnamed_addr constant [34 x i8] c"bitset test argument out of range\00", align 1
@.str.119 = private unnamed_addr constant [9 x i8] c"invalid \00", align 1
@_ZNSt3__1L19piecewise_constructE = internal constant %"struct.std::__1::piecewise_construct_t" undef, align 1
@.str.121 = private unnamed_addr constant [58 x i8] c"Attempting to account to nonexistent dnsname+qtype ring '\00", align 1
@_ZTVSt11range_error = external unnamed_addr constant { [5 x ptr] }, align 8
@.str.122 = private unnamed_addr constant [49 x i8] c"Attempting to account to nonexistent comboRing '\00", align 1
@_ZTV17TSIGRecordContent = external unnamed_addr constant { [8 x ptr] }, align 8
@g_8bitDNS = external local_unnamed_addr global i8, align 1
@.str.123 = private unnamed_addr constant [13 x i8] c"basic_string\00", align 1
@_ZTISt12length_error = external constant ptr
@_ZTVSt12length_error = external unnamed_addr constant { [5 x ptr] }, align 8
@.str.124 = private unnamed_addr constant [28 x i8] c"checked_conv: source value \00", align 1
@.str.125 = private unnamed_addr constant [49 x i8] c" is larger than target's maximum possible value \00", align 1
@.str.126 = private unnamed_addr constant [7 x i8] c"vector\00", align 1
@_ZNSt3__15ctypeIcE2idE = external global %"class.std::__1::locale::id", align 8
@_ZTVNSt3__120__shared_ptr_emplaceI20CDNSKEYRecordContentNS_9allocatorIS1_EEEE = linkonce_odr unnamed_addr constant { [7 x ptr] } { [7 x ptr] [ptr null, ptr @_ZTINSt3__120__shared_ptr_emplaceI20CDNSKEYRecordContentNS_9allocatorIS1_EEEE, ptr @_ZNSt3__120__shared_ptr_emplaceI20CDNSKEYRecordContentNS_9allocatorIS1_EEED1Ev, ptr @_ZNSt3__120__shared_ptr_emplaceI20CDNSKEYRecordContentNS_9allocatorIS1_EEED0Ev, ptr @_ZNSt3__120__shared_ptr_emplaceI20CDNSKEYRecordContentNS_9allocatorIS1_EEE16__on_zero_sharedEv, ptr @_ZNKSt3__119__shared_weak_count13__get_deleterERKSt9type_info, ptr @_ZNSt3__120__shared_ptr_emplaceI20CDNSKEYRecordContentNS_9allocatorIS1_EEE21__on_zero_shared_weakEv] }, align 8
@_ZTSNSt3__120__shared_ptr_emplaceI20CDNSKEYRecordContentNS_9allocatorIS1_EEEE = linkonce_odr hidden constant [74 x i8] c"NSt3__120__shared_ptr_emplaceI20CDNSKEYRecordContentNS_9allocatorIS1_EEEE\00", align 1
@_ZTINSt3__119__shared_weak_countE = external constant ptr
@_ZTINSt3__120__shared_ptr_emplaceI20CDNSKEYRecordContentNS_9allocatorIS1_EEEE = linkonce_odr hidden constant { ptr, ptr, ptr } { ptr getelementptr inbounds (ptr, ptr @_ZTVN10__cxxabiv120__si_class_type_infoE, i64 2), ptr inttoptr (i64 add (i64 ptrtoint (ptr @_ZTSNSt3__120__shared_ptr_emplaceI20CDNSKEYRecordContentNS_9allocatorIS1_EEEE to i64), i64 -9223372036854775808) to ptr), ptr @_ZTINSt3__119__shared_weak_countE }, align 8
@_ZTVNSt3__119__shared_weak_countE = external unnamed_addr constant { [7 x ptr] }, align 8
@_ZTVNSt3__114__shared_countE = external unnamed_addr constant { [5 x ptr] }, align 8
@_ZTVNSt3__120__shared_ptr_emplaceI16CDSRecordContentNS_9allocatorIS1_EEEE = linkonce_odr unnamed_addr constant { [7 x ptr] } { [7 x ptr] [ptr null, ptr @_ZTINSt3__120__shared_ptr_emplaceI16CDSRecordContentNS_9allocatorIS1_EEEE, ptr @_ZNSt3__120__shared_ptr_emplaceI16CDSRecordContentNS_9allocatorIS1_EEED1Ev, ptr @_ZNSt3__120__shared_ptr_emplaceI16CDSRecordContentNS_9allocatorIS1_EEED0Ev, ptr @_ZNSt3__120__shared_ptr_emplaceI16CDSRecordContentNS_9allocatorIS1_EEE16__on_zero_sharedEv, ptr @_ZNKSt3__119__shared_weak_count13__get_deleterERKSt9type_info, ptr @_ZNSt3__120__shared_ptr_emplaceI16CDSRecordContentNS_9allocatorIS1_EEE21__on_zero_shared_weakEv] }, align 8
@_ZTSNSt3__120__shared_ptr_emplaceI16CDSRecordContentNS_9allocatorIS1_EEEE = linkonce_odr hidden constant [70 x i8] c"NSt3__120__shared_ptr_emplaceI16CDSRecordContentNS_9allocatorIS1_EEEE\00", align 1
@_ZTINSt3__120__shared_ptr_emplaceI16CDSRecordContentNS_9allocatorIS1_EEEE = linkonce_odr hidden constant { ptr, ptr, ptr } { ptr getelementptr inbounds (ptr, ptr @_ZTVN10__cxxabiv120__si_class_type_infoE, i64 2), ptr inttoptr (i64 add (i64 ptrtoint (ptr @_ZTSNSt3__120__shared_ptr_emplaceI16CDSRecordContentNS_9allocatorIS1_EEEE to i64), i64 -9223372036854775808) to ptr), ptr @_ZTINSt3__119__shared_weak_countE }, align 8
@_ZTV19DNSKEYRecordContent = external unnamed_addr constant { [8 x ptr] }, align 8
@_ZTVNSt3__120__shared_ptr_emplaceI19DNSKEYRecordContentNS_9allocatorIS1_EEEE = linkonce_odr unnamed_addr constant { [7 x ptr] } { [7 x ptr] [ptr null, ptr @_ZTINSt3__120__shared_ptr_emplaceI19DNSKEYRecordContentNS_9allocatorIS1_EEEE, ptr @_ZNSt3__120__shared_ptr_emplaceI19DNSKEYRecordContentNS_9allocatorIS1_EEED1Ev, ptr @_ZNSt3__120__shared_ptr_emplaceI19DNSKEYRecordContentNS_9allocatorIS1_EEED0Ev, ptr @_ZNSt3__120__shared_ptr_emplaceI19DNSKEYRecordContentNS_9allocatorIS1_EEE16__on_zero_sharedEv, ptr @_ZNKSt3__119__shared_weak_count13__get_deleterERKSt9type_info, ptr @_ZNSt3__120__shared_ptr_emplaceI19DNSKEYRecordContentNS_9allocatorIS1_EEE21__on_zero_shared_weakEv] }, align 8
@_ZTSNSt3__120__shared_ptr_emplaceI19DNSKEYRecordContentNS_9allocatorIS1_EEEE = linkonce_odr hidden constant [73 x i8] c"NSt3__120__shared_ptr_emplaceI19DNSKEYRecordContentNS_9allocatorIS1_EEEE\00", align 1
@_ZTINSt3__120__shared_ptr_emplaceI19DNSKEYRecordContentNS_9allocatorIS1_EEEE = linkonce_odr hidden constant { ptr, ptr, ptr } { ptr getelementptr inbounds (ptr, ptr @_ZTVN10__cxxabiv120__si_class_type_infoE, i64 2), ptr inttoptr (i64 add (i64 ptrtoint (ptr @_ZTSNSt3__120__shared_ptr_emplaceI19DNSKEYRecordContentNS_9allocatorIS1_EEEE to i64), i64 -9223372036854775808) to ptr), ptr @_ZTINSt3__119__shared_weak_countE }, align 8
@_ZTVNSt3__120__shared_ptr_emplaceI15DSRecordContentNS_9allocatorIS1_EEEE = linkonce_odr unnamed_addr constant { [7 x ptr] } { [7 x ptr] [ptr null, ptr @_ZTINSt3__120__shared_ptr_emplaceI15DSRecordContentNS_9allocatorIS1_EEEE, ptr @_ZNSt3__120__shared_ptr_emplaceI15DSRecordContentNS_9allocatorIS1_EEED1Ev, ptr @_ZNSt3__120__shared_ptr_emplaceI15DSRecordContentNS_9allocatorIS1_EEED0Ev, ptr @_ZNSt3__120__shared_ptr_emplaceI15DSRecordContentNS_9allocatorIS1_EEE16__on_zero_sharedEv, ptr @_ZNKSt3__119__shared_weak_count13__get_deleterERKSt9type_info, ptr @_ZNSt3__120__shared_ptr_emplaceI15DSRecordContentNS_9allocatorIS1_EEE21__on_zero_shared_weakEv] }, align 8
@_ZTSNSt3__120__shared_ptr_emplaceI15DSRecordContentNS_9allocatorIS1_EEEE = linkonce_odr hidden constant [69 x i8] c"NSt3__120__shared_ptr_emplaceI15DSRecordContentNS_9allocatorIS1_EEEE\00", align 1
@_ZTINSt3__120__shared_ptr_emplaceI15DSRecordContentNS_9allocatorIS1_EEEE = linkonce_odr hidden constant { ptr, ptr, ptr } { ptr getelementptr inbounds (ptr, ptr @_ZTVN10__cxxabiv120__si_class_type_infoE, i64 2), ptr inttoptr (i64 add (i64 ptrtoint (ptr @_ZTSNSt3__120__shared_ptr_emplaceI15DSRecordContentNS_9allocatorIS1_EEEE to i64), i64 -9223372036854775808) to ptr), ptr @_ZTINSt3__119__shared_weak_countE }, align 8
@_ZTVNSt3__120__shared_ptr_emplaceI23NSEC3PARAMRecordContentNS_9allocatorIS1_EEEE = linkonce_odr unnamed_addr constant { [7 x ptr] } { [7 x ptr] [ptr null, ptr @_ZTINSt3__120__shared_ptr_emplaceI23NSEC3PARAMRecordContentNS_9allocatorIS1_EEEE, ptr @_ZNSt3__120__shared_ptr_emplaceI23NSEC3PARAMRecordContentNS_9allocatorIS1_EEED1Ev, ptr @_ZNSt3__120__shared_ptr_emplaceI23NSEC3PARAMRecordContentNS_9allocatorIS1_EEED0Ev, ptr @_ZNSt3__120__shared_ptr_emplaceI23NSEC3PARAMRecordContentNS_9allocatorIS1_EEE16__on_zero_sharedEv, ptr @_ZNKSt3__119__shared_weak_count13__get_deleterERKSt9type_info, ptr @_ZNSt3__120__shared_ptr_emplaceI23NSEC3PARAMRecordContentNS_9allocatorIS1_EEE21__on_zero_shared_weakEv] }, align 8
@_ZTSNSt3__120__shared_ptr_emplaceI23NSEC3PARAMRecordContentNS_9allocatorIS1_EEEE = linkonce_odr hidden constant [77 x i8] c"NSt3__120__shared_ptr_emplaceI23NSEC3PARAMRecordContentNS_9allocatorIS1_EEEE\00", align 1
@_ZTINSt3__120__shared_ptr_emplaceI23NSEC3PARAMRecordContentNS_9allocatorIS1_EEEE = linkonce_odr hidden constant { ptr, ptr, ptr } { ptr getelementptr inbounds (ptr, ptr @_ZTVN10__cxxabiv120__si_class_type_infoE, i64 2), ptr inttoptr (i64 add (i64 ptrtoint (ptr @_ZTSNSt3__120__shared_ptr_emplaceI23NSEC3PARAMRecordContentNS_9allocatorIS1_EEEE to i64), i64 -9223372036854775808) to ptr), ptr @_ZTINSt3__119__shared_weak_countE }, align 8
@_ZTI18DNAMERecordContent = external constant ptr
@_ZTVNSt3__120__shared_ptr_emplaceI18CNAMERecordContentNS_9allocatorIS1_EEEE = linkonce_odr unnamed_addr constant { [7 x ptr] } { [7 x ptr] [ptr null, ptr @_ZTINSt3__120__shared_ptr_emplaceI18CNAMERecordContentNS_9allocatorIS1_EEEE, ptr @_ZNSt3__120__shared_ptr_emplaceI18CNAMERecordContentNS_9allocatorIS1_EEED1Ev, ptr @_ZNSt3__120__shared_ptr_emplaceI18CNAMERecordContentNS_9allocatorIS1_EEED0Ev, ptr @_ZNSt3__120__shared_ptr_emplaceI18CNAMERecordContentNS_9allocatorIS1_EEE16__on_zero_sharedEv, ptr @_ZNKSt3__119__shared_weak_count13__get_deleterERKSt9type_info, ptr @_ZNSt3__120__shared_ptr_emplaceI18CNAMERecordContentNS_9allocatorIS1_EEE21__on_zero_shared_weakEv] }, align 8
@_ZTSNSt3__120__shared_ptr_emplaceI18CNAMERecordContentNS_9allocatorIS1_EEEE = linkonce_odr hidden constant [72 x i8] c"NSt3__120__shared_ptr_emplaceI18CNAMERecordContentNS_9allocatorIS1_EEEE\00", align 1
@_ZTINSt3__120__shared_ptr_emplaceI18CNAMERecordContentNS_9allocatorIS1_EEEE = linkonce_odr hidden constant { ptr, ptr, ptr } { ptr getelementptr inbounds (ptr, ptr @_ZTVN10__cxxabiv120__si_class_type_infoE, i64 2), ptr inttoptr (i64 add (i64 ptrtoint (ptr @_ZTSNSt3__120__shared_ptr_emplaceI18CNAMERecordContentNS_9allocatorIS1_EEEE to i64), i64 -9223372036854775808) to ptr), ptr @_ZTINSt3__119__shared_weak_countE }, align 8
@_ZTI18CNAMERecordContent = external constant ptr
@_ZTS21SVCBBaseRecordContent = linkonce_odr hidden constant [24 x i8] c"21SVCBBaseRecordContent\00", align 1
@_ZTI21SVCBBaseRecordContent = linkonce_odr hidden constant { ptr, ptr, ptr } { ptr getelementptr inbounds (ptr, ptr @_ZTVN10__cxxabiv120__si_class_type_infoE, i64 2), ptr inttoptr (i64 add (i64 ptrtoint (ptr @_ZTS21SVCBBaseRecordContent to i64), i64 -9223372036854775808) to ptr), ptr @_ZTI16DNSRecordContent }, align 8
@_ZTI15NSRecordContent = external constant ptr
@_ZTI15MXRecordContent = external constant ptr
@_ZTI16SRVRecordContent = external constant ptr
@_ZTI17AAAARecordContent = external constant ptr
@_ZTI14ARecordContent = external constant ptr
@_ZTVNSt3__120__shared_ptr_emplaceI17NSECRecordContentNS_9allocatorIS1_EEEE = linkonce_odr unnamed_addr constant { [7 x ptr] } { [7 x ptr] [ptr null, ptr @_ZTINSt3__120__shared_ptr_emplaceI17NSECRecordContentNS_9allocatorIS1_EEEE, ptr @_ZNSt3__120__shared_ptr_emplaceI17NSECRecordContentNS_9allocatorIS1_EEED1Ev, ptr @_ZNSt3__120__shared_ptr_emplaceI17NSECRecordContentNS_9allocatorIS1_EEED0Ev, ptr @_ZNSt3__120__shared_ptr_emplaceI17NSECRecordContentNS_9allocatorIS1_EEE16__on_zero_sharedEv, ptr @_ZNKSt3__119__shared_weak_count13__get_deleterERKSt9type_info, ptr @_ZNSt3__120__shared_ptr_emplaceI17NSECRecordContentNS_9allocatorIS1_EEE21__on_zero_shared_weakEv] }, align 8
@_ZTSNSt3__120__shared_ptr_emplaceI17NSECRecordContentNS_9allocatorIS1_EEEE = linkonce_odr hidden constant [71 x i8] c"NSt3__120__shared_ptr_emplaceI17NSECRecordContentNS_9allocatorIS1_EEEE\00", align 1
@_ZTINSt3__120__shared_ptr_emplaceI17NSECRecordContentNS_9allocatorIS1_EEEE = linkonce_odr hidden constant { ptr, ptr, ptr } { ptr getelementptr inbounds (ptr, ptr @_ZTVN10__cxxabiv120__si_class_type_infoE, i64 2), ptr inttoptr (i64 add (i64 ptrtoint (ptr @_ZTSNSt3__120__shared_ptr_emplaceI17NSECRecordContentNS_9allocatorIS1_EEEE to i64), i64 -9223372036854775808) to ptr), ptr @_ZTINSt3__119__shared_weak_countE }, align 8
@_ZTVNSt3__120__shared_ptr_emplaceI18NSEC3RecordContentNS_9allocatorIS1_EEEE = linkonce_odr unnamed_addr constant { [7 x ptr] } { [7 x ptr] [ptr null, ptr @_ZTINSt3__120__shared_ptr_emplaceI18NSEC3RecordContentNS_9allocatorIS1_EEEE, ptr @_ZNSt3__120__shared_ptr_emplaceI18NSEC3RecordContentNS_9allocatorIS1_EEED1Ev, ptr @_ZNSt3__120__shared_ptr_emplaceI18NSEC3RecordContentNS_9allocatorIS1_EEED0Ev, ptr @_ZNSt3__120__shared_ptr_emplaceI18NSEC3RecordContentNS_9allocatorIS1_EEE16__on_zero_sharedEv, ptr @_ZNKSt3__119__shared_weak_count13__get_deleterERKSt9type_info, ptr @_ZNSt3__120__shared_ptr_emplaceI18NSEC3RecordContentNS_9allocatorIS1_EEE21__on_zero_shared_weakEv] }, align 8
@_ZTSNSt3__120__shared_ptr_emplaceI18NSEC3RecordContentNS_9allocatorIS1_EEEE = linkonce_odr hidden constant [72 x i8] c"NSt3__120__shared_ptr_emplaceI18NSEC3RecordContentNS_9allocatorIS1_EEEE\00", align 1
@_ZTINSt3__120__shared_ptr_emplaceI18NSEC3RecordContentNS_9allocatorIS1_EEEE = linkonce_odr hidden constant { ptr, ptr, ptr } { ptr getelementptr inbounds (ptr, ptr @_ZTVN10__cxxabiv120__si_class_type_infoE, i64 2), ptr inttoptr (i64 add (i64 ptrtoint (ptr @_ZTSNSt3__120__shared_ptr_emplaceI18NSEC3RecordContentNS_9allocatorIS1_EEEE to i64), i64 -9223372036854775808) to ptr), ptr @_ZTINSt3__119__shared_weak_countE }, align 8
@_ZTVNSt3__119basic_ostringstreamIcNS_11char_traitsIcEENS_9allocatorIcEEEE = linkonce_odr unnamed_addr constant { [5 x ptr], [5 x ptr] } { [5 x ptr] [ptr inttoptr (i64 112 to ptr), ptr null, ptr @_ZTINSt3__119basic_ostringstreamIcNS_11char_traitsIcEENS_9allocatorIcEEEE, ptr @_ZNSt3__119basic_ostringstreamIcNS_11char_traitsIcEENS_9allocatorIcEEED1Ev, ptr @_ZNSt3__119basic_ostringstreamIcNS_11char_traitsIcEENS_9allocatorIcEEED0Ev], [5 x ptr] [ptr inttoptr (i64 -112 to ptr), ptr inttoptr (i64 -112 to ptr), ptr @_ZTINSt3__119basic_ostringstreamIcNS_11char_traitsIcEENS_9allocatorIcEEEE, ptr @_ZTv0_n24_NSt3__119basic_ostringstreamIcNS_11char_traitsIcEENS_9allocatorIcEEED1Ev, ptr @_ZTv0_n24_NSt3__119basic_ostringstreamIcNS_11char_traitsIcEENS_9allocatorIcEEED0Ev] }, align 8
@_ZTTNSt3__119basic_ostringstreamIcNS_11char_traitsIcEENS_9allocatorIcEEEE = linkonce_odr unnamed_addr constant [4 x ptr] [ptr getelementptr inbounds ({ [5 x ptr], [5 x ptr] }, ptr @_ZTVNSt3__119basic_ostringstreamIcNS_11char_traitsIcEENS_9allocatorIcEEEE, i32 0, inrange i32 0, i32 3), ptr getelementptr inbounds ({ [5 x ptr], [5 x ptr] }, ptr @_ZTCNSt3__119basic_ostringstreamIcNS_11char_traitsIcEENS_9allocatorIcEEEE0_NS_13basic_ostreamIcS2_EE, i32 0, inrange i32 0, i32 3), ptr getelementptr inbounds ({ [5 x ptr], [5 x ptr] }, ptr @_ZTCNSt3__119basic_ostringstreamIcNS_11char_traitsIcEENS_9allocatorIcEEEE0_NS_13basic_ostreamIcS2_EE, i32 0, inrange i32 1, i32 3), ptr getelementptr inbounds ({ [5 x ptr], [5 x ptr] }, ptr @_ZTVNSt3__119basic_ostringstreamIcNS_11char_traitsIcEENS_9allocatorIcEEEE, i32 0, inrange i32 1, i32 3)], align 8
@_ZTCNSt3__119basic_ostringstreamIcNS_11char_traitsIcEENS_9allocatorIcEEEE0_NS_13basic_ostreamIcS2_EE = linkonce_odr unnamed_addr constant { [5 x ptr], [5 x ptr] } { [5 x ptr] [ptr inttoptr (i64 112 to ptr), ptr null, ptr @_ZTINSt3__113basic_ostreamIcNS_11char_traitsIcEEEE, ptr @_ZNSt3__113basic_ostreamIcNS_11char_traitsIcEEED1Ev, ptr @_ZNSt3__113basic_ostreamIcNS_11char_traitsIcEEED0Ev], [5 x ptr] [ptr inttoptr (i64 -112 to ptr), ptr inttoptr (i64 -112 to ptr), ptr @_ZTINSt3__113basic_ostreamIcNS_11char_traitsIcEEEE, ptr @_ZTv0_n24_NSt3__113basic_ostreamIcNS_11char_traitsIcEEED1Ev, ptr @_ZTv0_n24_NSt3__113basic_ostreamIcNS_11char_traitsIcEEED0Ev] }, align 8
@_ZTINSt3__113basic_ostreamIcNS_11char_traitsIcEEEE = external constant ptr
@_ZTSNSt3__119basic_ostringstreamIcNS_11char_traitsIcEENS_9allocatorIcEEEE = linkonce_odr hidden constant [70 x i8] c"NSt3__119basic_ostringstreamIcNS_11char_traitsIcEENS_9allocatorIcEEEE\00", align 1
@_ZTINSt3__119basic_ostringstreamIcNS_11char_traitsIcEENS_9allocatorIcEEEE = linkonce_odr hidden constant { ptr, ptr, ptr } { ptr getelementptr inbounds (ptr, ptr @_ZTVN10__cxxabiv120__si_class_type_infoE, i64 2), ptr inttoptr (i64 add (i64 ptrtoint (ptr @_ZTSNSt3__119basic_ostringstreamIcNS_11char_traitsIcEENS_9allocatorIcEEEE to i64), i64 -9223372036854775808) to ptr), ptr @_ZTINSt3__113basic_ostreamIcNS_11char_traitsIcEEEE }, align 8
@_ZTVNSt3__19basic_iosIcNS_11char_traitsIcEEEE = external unnamed_addr constant { [4 x ptr] }, align 8
@_ZTVNSt3__18ios_baseE = external unnamed_addr constant { [4 x ptr] }, align 8
@_ZTVNSt3__115basic_stringbufIcNS_11char_traitsIcEENS_9allocatorIcEEEE = linkonce_odr unnamed_addr constant { [16 x ptr] } { [16 x ptr] [ptr null, ptr @_ZTINSt3__115basic_stringbufIcNS_11char_traitsIcEENS_9allocatorIcEEEE, ptr @_ZNSt3__115basic_stringbufIcNS_11char_traitsIcEENS_9allocatorIcEEED1Ev, ptr @_ZNSt3__115basic_stringbufIcNS_11char_traitsIcEENS_9allocatorIcEEED0Ev, ptr @_ZNSt3__115basic_streambufIcNS_11char_traitsIcEEE5imbueERKNS_6localeE, ptr @_ZNSt3__115basic_streambufIcNS_11char_traitsIcEEE6setbufEPcl, ptr @_ZNSt3__115basic_stringbufIcNS_11char_traitsIcEENS_9allocatorIcEEE7seekoffExNS_8ios_base7seekdirEj, ptr @_ZNSt3__115basic_stringbufIcNS_11char_traitsIcEENS_9allocatorIcEEE7seekposENS_4fposI11__mbstate_tEEj, ptr @_ZNSt3__115basic_streambufIcNS_11char_traitsIcEEE4syncEv, ptr @_ZNSt3__115basic_streambufIcNS_11char_traitsIcEEE9showmanycEv, ptr @_ZNSt3__115basic_streambufIcNS_11char_traitsIcEEE6xsgetnEPcl, ptr @_ZNSt3__115basic_stringbufIcNS_11char_traitsIcEENS_9allocatorIcEEE9underflowEv, ptr @_ZNSt3__115basic_streambufIcNS_11char_traitsIcEEE5uflowEv, ptr @_ZNSt3__115basic_stringbufIcNS_11char_traitsIcEENS_9allocatorIcEEE9pbackfailEi, ptr @_ZNSt3__115basic_streambufIcNS_11char_traitsIcEEE6xsputnEPKcl, ptr @_ZNSt3__115basic_stringbufIcNS_11char_traitsIcEENS_9allocatorIcEEE8overflowEi] }, align 8
@_ZTSNSt3__115basic_stringbufIcNS_11char_traitsIcEENS_9allocatorIcEEEE = linkonce_odr hidden constant [66 x i8] c"NSt3__115basic_stringbufIcNS_11char_traitsIcEENS_9allocatorIcEEEE\00", align 1
@_ZTINSt3__115basic_streambufIcNS_11char_traitsIcEEEE = external constant ptr
@_ZTINSt3__115basic_stringbufIcNS_11char_traitsIcEENS_9allocatorIcEEEE = linkonce_odr hidden constant { ptr, ptr, ptr } { ptr getelementptr inbounds (ptr, ptr @_ZTVN10__cxxabiv120__si_class_type_infoE, i64 2), ptr inttoptr (i64 add (i64 ptrtoint (ptr @_ZTSNSt3__115basic_stringbufIcNS_11char_traitsIcEENS_9allocatorIcEEEE to i64), i64 -9223372036854775808) to ptr), ptr @_ZTINSt3__115basic_streambufIcNS_11char_traitsIcEEEE }, align 8
@_ZTI18ALIASRecordContent = external constant ptr
@llvm.global_ctors = appending global [1 x { i32, ptr, ptr }] [{ i32, ptr, ptr } { i32 65535, ptr @_GLOBAL__sub_I_packethandler.cc, ptr null }]

; Function Attrs: noinline ssp uwtable(sync)
define internal fastcc void @__cxx_global_var_init() unnamed_addr #0 section "__TEXT,__StaticInit,regular,pure_instructions" {
  %1 = tail call noundef ptr @_ZN5boost11optional_ns15in_place_init_tC1ENS1_8init_tagE(ptr noundef nonnull align 1 dereferenceable(1) @_ZN5boost11optional_nsL13in_place_initE)
  %2 = tail call ptr @llvm.invariant.start.p0(i64 1, ptr nonnull @_ZN5boost11optional_nsL13in_place_initE)
  ret void
}

; Function Attrs: noinline ssp uwtable(sync)
define linkonce_odr noundef ptr @_ZN5boost11optional_ns15in_place_init_tC1ENS1_8init_tagE(ptr noundef nonnull returned align 1 dereferenceable(1) %0) unnamed_addr #0 align 2 {
  %2 = tail call noundef ptr @_ZN5boost11optional_ns15in_place_init_tC2ENS1_8init_tagE(ptr noundef nonnull align 1 dereferenceable(1) %0)
  ret ptr %0
}

; Function Attrs: mustprogress nocallback nofree nosync nounwind willreturn memory(argmem: readwrite)
declare ptr @llvm.invariant.start.p0(i64 immarg, ptr nocapture) #1

; Function Attrs: noinline ssp uwtable(sync)
define internal fastcc void @__cxx_global_var_init.1() unnamed_addr #0 section "__TEXT,__StaticInit,regular,pure_instructions" {
  %1 = tail call noundef ptr @_ZN5boost11optional_ns18in_place_init_if_tC1ENS1_8init_tagE(ptr noundef nonnull align 1 dereferenceable(1) @_ZN5boost11optional_nsL16in_place_init_ifE)
  %2 = tail call ptr @llvm.invariant.start.p0(i64 1, ptr nonnull @_ZN5boost11optional_nsL16in_place_init_ifE)
  ret void
}

; Function Attrs: noinline ssp uwtable(sync)
define linkonce_odr noundef ptr @_ZN5boost11optional_ns18in_place_init_if_tC1ENS1_8init_tagE(ptr noundef nonnull returned align 1 dereferenceable(1) %0) unnamed_addr #0 align 2 {
  %2 = tail call noundef ptr @_ZN5boost11optional_ns18in_place_init_if_tC2ENS1_8init_tagE(ptr noundef nonnull align 1 dereferenceable(1) %0)
  ret ptr %0
}

; Function Attrs: noinline nounwind ssp uwtable(sync)
define internal fastcc void @__cxx_global_var_init.2() unnamed_addr #2 section "__TEXT,__StaticInit,regular,pure_instructions" {
  %1 = tail call noundef ptr @_ZN12NetmaskGroupC1Ev(ptr noundef nonnull align 8 dereferenceable(24) @_ZN13PacketHandler17s_allowNotifyFromE) #26
  %2 = tail call i32 @__cxa_atexit(ptr nonnull @_ZN12NetmaskGroupD1Ev, ptr nonnull @_ZN13PacketHandler17s_allowNotifyFromE, ptr nonnull @__dso_handle) #26
  ret void
}

; Function Attrs: noinline nounwind ssp uwtable(sync)
define linkonce_odr noundef ptr @_ZN12NetmaskGroupC1Ev(ptr noundef nonnull returned align 8 dereferenceable(24) %0) unnamed_addr #2 align 2 {
  %2 = tail call noundef ptr @_ZN12NetmaskGroupC2Ev(ptr noundef nonnull align 8 dereferenceable(24) %0) #26
  ret ptr %0
}

; Function Attrs: noinline nounwind ssp uwtable(sync)
define linkonce_odr noundef ptr @_ZN12NetmaskGroupD1Ev(ptr noundef nonnull returned align 8 dereferenceable(24) %0) unnamed_addr #2 align 2 {
  %2 = tail call noundef ptr @_ZN12NetmaskGroupD2Ev(ptr noundef nonnull align 8 dereferenceable(24) %0) #26
  ret ptr %0
}

; Function Attrs: nofree nounwind
declare i32 @__cxa_atexit(ptr, ptr, ptr) local_unnamed_addr #3

; Function Attrs: noinline nounwind ssp uwtable(sync)
define internal fastcc void @__cxx_global_var_init.3() unnamed_addr #2 section "__TEXT,__StaticInit,regular,pure_instructions" {
  %1 = tail call noundef ptr @_ZNSt3__13setINS_12basic_stringIcNS_11char_traitsIcEENS_9allocatorIcEEEENS_4lessIS6_EENS4_IS6_EEEC1B7v160006Ev(ptr noundef nonnull align 8 dereferenceable(24) @_ZN13PacketHandler15s_forwardNotifyE) #26
  %2 = tail call i32 @__cxa_atexit(ptr nonnull @_ZNSt3__13setINS_12basic_stringIcNS_11char_traitsIcEENS_9allocatorIcEEEENS_4lessIS6_EENS4_IS6_EEED1B7v160006Ev, ptr nonnull @_ZN13PacketHandler15s_forwardNotifyE, ptr nonnull @__dso_handle) #26
  ret void
}

; Function Attrs: noinline nounwind ssp uwtable(sync)
define linkonce_odr hidden noundef ptr @_ZNSt3__13setINS_12basic_stringIcNS_11char_traitsIcEENS_9allocatorIcEEEENS_4lessIS6_EENS4_IS6_EEEC1B7v160006Ev(ptr noundef nonnull returned align 8 dereferenceable(24) %0) unnamed_addr #2 align 2 {
  %2 = tail call noundef ptr @_ZNSt3__13setINS_12basic_stringIcNS_11char_traitsIcEENS_9allocatorIcEEEENS_4lessIS6_EENS4_IS6_EEEC2B7v160006Ev(ptr noundef nonnull align 8 dereferenceable(24) %0) #26
  ret ptr %0
}

; Function Attrs: noinline nounwind ssp uwtable(sync)
define linkonce_odr hidden noundef ptr @_ZNSt3__13setINS_12basic_stringIcNS_11char_traitsIcEENS_9allocatorIcEEEENS_4lessIS6_EENS4_IS6_EEED1B7v160006Ev(ptr noundef nonnull returned align 8 dereferenceable(24) %0) unnamed_addr #2 align 2 {
  %2 = tail call noundef ptr @_ZNSt3__13setINS_12basic_stringIcNS_11char_traitsIcEENS_9allocatorIcEEEENS_4lessIS6_EENS4_IS6_EEED2B7v160006Ev(ptr noundef nonnull align 8 dereferenceable(24) %0) #26
  ret ptr %0
}

; Function Attrs: noinline ssp uwtable(sync)
define internal fastcc void @__cxx_global_var_init.4() unnamed_addr #0 section "__TEXT,__StaticInit,regular,pure_instructions" {
  tail call void @_ZNSt3__111make_sharedB7v160006I20CDNSKEYRecordContentJRA11_KcEvEENS_10shared_ptrIT_EEDpOT0_(ptr nonnull sret(%"class.std::__1::shared_ptr") align 8 @_ZN13PacketHandler22s_deleteCDNSKEYContentE, ptr noundef nonnull align 1 dereferenceable(11) @.str)
  %1 = tail call i32 @__cxa_atexit(ptr nonnull @_ZNSt3__110shared_ptrI20CDNSKEYRecordContentED1B7v160006Ev, ptr nonnull @_ZN13PacketHandler22s_deleteCDNSKEYContentE, ptr nonnull @__dso_handle) #26
  ret void
}

; Function Attrs: mustprogress noinline ssp uwtable(sync)
define linkonce_odr hidden void @_ZNSt3__111make_sharedB7v160006I20CDNSKEYRecordContentJRA11_KcEvEENS_10shared_ptrIT_EEDpOT0_(ptr noalias sret(%"class.std::__1::shared_ptr") align 8 %0, ptr noundef nonnull align 1 dereferenceable(11) %1) local_unnamed_addr #4 {
  %3 = alloca %"class.std::__1::allocator.520", align 1
  call void @llvm.lifetime.start.p0(i64 1, ptr nonnull %3) #26
  %4 = call noundef ptr @_ZNSt3__19allocatorI20CDNSKEYRecordContentEC1B7v160006Ev(ptr noundef nonnull align 1 dereferenceable(1) %3) #26
  call void @_ZNSt3__115allocate_sharedB7v160006I20CDNSKEYRecordContentNS_9allocatorIS1_EEJRA11_KcEvEENS_10shared_ptrIT_EERKT0_DpOT1_(ptr sret(%"class.std::__1::shared_ptr") align 8 %0, ptr noundef nonnull align 1 dereferenceable(1) %3, ptr noundef nonnull align 1 dereferenceable(11) %1)
  call void @llvm.lifetime.end.p0(i64 1, ptr nonnull %3) #26
  ret void
}

; Function Attrs: noinline nounwind ssp uwtable(sync)
define linkonce_odr hidden noundef ptr @_ZNSt3__110shared_ptrI20CDNSKEYRecordContentED1B7v160006Ev(ptr noundef nonnull returned align 8 dereferenceable(16) %0) unnamed_addr #2 align 2 {
  %2 = tail call noundef ptr @_ZNSt3__110shared_ptrI20CDNSKEYRecordContentED2B7v160006Ev(ptr noundef nonnull align 8 dereferenceable(16) %0) #26
  ret ptr %0
}

; Function Attrs: noinline ssp uwtable(sync)
define internal fastcc void @__cxx_global_var_init.5() unnamed_addr #0 section "__TEXT,__StaticInit,regular,pure_instructions" {
  tail call void @_ZNSt3__111make_sharedB7v160006I16CDSRecordContentJRA9_KcEvEENS_10shared_ptrIT_EEDpOT0_(ptr nonnull sret(%"class.std::__1::shared_ptr.15") align 8 @_ZN13PacketHandler18s_deleteCDSContentE, ptr noundef nonnull align 1 dereferenceable(9) @.str.6)
  %1 = tail call i32 @__cxa_atexit(ptr nonnull @_ZNSt3__110shared_ptrI16CDSRecordContentED1B7v160006Ev, ptr nonnull @_ZN13PacketHandler18s_deleteCDSContentE, ptr nonnull @__dso_handle) #26
  ret void
}

; Function Attrs: mustprogress noinline ssp uwtable(sync)
define linkonce_odr hidden void @_ZNSt3__111make_sharedB7v160006I16CDSRecordContentJRA9_KcEvEENS_10shared_ptrIT_EEDpOT0_(ptr noalias sret(%"class.std::__1::shared_ptr.15") align 8 %0, ptr noundef nonnull align 1 dereferenceable(9) %1) local_unnamed_addr #4 {
  %3 = alloca %"class.std::__1::allocator.529", align 1
  call void @llvm.lifetime.start.p0(i64 1, ptr nonnull %3) #26
  %4 = call noundef ptr @_ZNSt3__19allocatorI16CDSRecordContentEC1B7v160006Ev(ptr noundef nonnull align 1 dereferenceable(1) %3) #26
  call void @_ZNSt3__115allocate_sharedB7v160006I16CDSRecordContentNS_9allocatorIS1_EEJRA9_KcEvEENS_10shared_ptrIT_EERKT0_DpOT1_(ptr sret(%"class.std::__1::shared_ptr.15") align 8 %0, ptr noundef nonnull align 1 dereferenceable(1) %3, ptr noundef nonnull align 1 dereferenceable(9) %1)
  call void @llvm.lifetime.end.p0(i64 1, ptr nonnull %3) #26
  ret void
}

; Function Attrs: noinline nounwind ssp uwtable(sync)
define linkonce_odr hidden noundef ptr @_ZNSt3__110shared_ptrI16CDSRecordContentED1B7v160006Ev(ptr noundef nonnull returned align 8 dereferenceable(16) %0) unnamed_addr #2 align 2 {
  %2 = tail call noundef ptr @_ZNSt3__110shared_ptrI16CDSRecordContentED2B7v160006Ev(ptr noundef nonnull align 8 dereferenceable(16) %0) #26
  ret ptr %0
}

; Function Attrs: noinline ssp uwtable(sync)
define noundef nonnull ptr @_ZN13PacketHandlerC2Ev(ptr noundef nonnull returned align 8 dereferenceable(344) %0) unnamed_addr #0 align 2 personality ptr @__gxx_personality_v0 {
  %2 = alloca %"class.std::__1::basic_string", align 8
  %3 = alloca %"class.std::__1::basic_string", align 8
  %4 = alloca %"class.std::__1::basic_string", align 8
  %5 = alloca %"class.std::__1::basic_string", align 8
  %6 = alloca %"class.std::__1::basic_string", align 8
  %7 = alloca %"class.std::__1::unique_ptr.16", align 8
  %8 = alloca %"class.std::__1::basic_string", align 8
  %9 = alloca %"class.std::__1::unique_ptr.16", align 8
  %10 = getelementptr inbounds %class.PacketHandler, ptr %0, i64 0, i32 5
  %11 = tail call noundef ptr @_ZN7SOADataC1Ev(ptr noundef nonnull align 8 dereferenceable(108) %10)
  %12 = getelementptr inbounds %class.PacketHandler, ptr %0, i64 0, i32 6
  %13 = tail call noundef ptr @_ZNSt3__110unique_ptrI8AuthLua4NS_14default_deleteIS1_EEEC1B7v160006ILb1EvEEv(ptr noundef nonnull align 8 dereferenceable(8) %12) #26
  %14 = getelementptr inbounds %class.PacketHandler, ptr %0, i64 0, i32 7
  %15 = tail call noundef ptr @_ZNSt3__110unique_ptrI8AuthLua4NS_14default_deleteIS1_EEEC1B7v160006ILb1EvEEv(ptr noundef nonnull align 8 dereferenceable(8) %14) #26
  %16 = getelementptr inbounds %class.PacketHandler, ptr %0, i64 0, i32 8
  %17 = tail call noundef ptr @_ZNSt3__110unique_ptrI8AuthLua4NS_14default_deleteIS1_EEEC1B7v160006ILb1EvEEv(ptr noundef nonnull align 8 dereferenceable(8) %16) #26
  %18 = getelementptr inbounds %class.PacketHandler, ptr %0, i64 0, i32 9
  %19 = invoke noundef ptr @_ZN12UeberBackendC1ERKNSt3__112basic_stringIcNS0_11char_traitsIcEENS0_9allocatorIcEEEE(ptr noundef nonnull align 8 dereferenceable(165) %18, ptr noundef nonnull align 8 dereferenceable(24) @g_programname)
          to label %20 unwind label %63

20:                                               ; preds = %1
  %21 = getelementptr inbounds %class.PacketHandler, ptr %0, i64 0, i32 10
  %22 = invoke noundef ptr @_ZN12DNSSECKeeperC1EP12UeberBackend(ptr noundef nonnull align 8 dereferenceable(25) %21, ptr noundef nonnull %18)
          to label %23 unwind label %67

23:                                               ; preds = %20
  %24 = tail call noundef i64 @_ZNSt3__113__atomic_baseImLb1EEppB7v160006Ev(ptr noundef nonnull align 8 dereferenceable(8) @_ZN13PacketHandler7s_countE) #26
  %25 = invoke noundef nonnull align 8 dereferenceable(168) ptr @_Z3argv()
          to label %26 unwind label %71

26:                                               ; preds = %23
  call void @llvm.lifetime.start.p0(i64 24, ptr nonnull %2) #26
  %27 = invoke noundef ptr @_ZNSt3__112basic_stringIcNS_11char_traitsIcEENS_9allocatorIcEEEC1B7v160006IDnEEPKc(ptr noundef nonnull align 8 dereferenceable(24) %2, ptr noundef nonnull @.str.7)
          to label %28 unwind label %75

28:                                               ; preds = %26
  %29 = invoke noundef zeroext i1 @_ZN7ArgvMap6mustDoERKNSt3__112basic_stringIcNS0_11char_traitsIcEENS0_9allocatorIcEEEE(ptr noundef nonnull align 8 dereferenceable(168) %25, ptr noundef nonnull align 8 dereferenceable(24) %2)
          to label %30 unwind label %77

30:                                               ; preds = %28
  %31 = getelementptr inbounds %class.PacketHandler, ptr %0, i64 0, i32 1
  %32 = zext i1 %29 to i8
  store i8 %32, ptr %31, align 1, !tbaa !5
  %33 = call noundef ptr @_ZNSt3__112basic_stringIcNS_11char_traitsIcEENS_9allocatorIcEEED1Ev(ptr noundef nonnull align 8 dereferenceable(24) %2) #26
  call void @llvm.lifetime.end.p0(i64 24, ptr nonnull %2) #26
  %34 = invoke noundef nonnull align 8 dereferenceable(168) ptr @_Z3argv()
          to label %35 unwind label %71

35:                                               ; preds = %30
  call void @llvm.lifetime.start.p0(i64 24, ptr nonnull %3) #26
  %36 = invoke noundef ptr @_ZNSt3__112basic_stringIcNS_11char_traitsIcEENS_9allocatorIcEEEC1B7v160006IDnEEPKc(ptr noundef nonnull align 8 dereferenceable(24) %3, ptr noundef nonnull @.str.8)
          to label %37 unwind label %84

37:                                               ; preds = %35
  %38 = invoke noundef zeroext i1 @_ZN7ArgvMap6mustDoERKNSt3__112basic_stringIcNS0_11char_traitsIcEENS0_9allocatorIcEEEE(ptr noundef nonnull align 8 dereferenceable(168) %34, ptr noundef nonnull align 8 dereferenceable(24) %3)
          to label %39 unwind label %86

39:                                               ; preds = %37
  %40 = getelementptr inbounds %class.PacketHandler, ptr %0, i64 0, i32 2
  %41 = zext i1 %38 to i8
  store i8 %41, ptr %40, align 2, !tbaa !34
  %42 = call noundef ptr @_ZNSt3__112basic_stringIcNS_11char_traitsIcEENS_9allocatorIcEEED1Ev(ptr noundef nonnull align 8 dereferenceable(24) %3) #26
  call void @llvm.lifetime.end.p0(i64 24, ptr nonnull %3) #26
  %43 = invoke noundef nonnull align 8 dereferenceable(168) ptr @_Z3argv()
          to label %44 unwind label %71

44:                                               ; preds = %39
  call void @llvm.lifetime.start.p0(i64 24, ptr nonnull %4) #26
  %45 = invoke noundef ptr @_ZNSt3__112basic_stringIcNS_11char_traitsIcEENS_9allocatorIcEEEC1B7v160006IDnEEPKc(ptr noundef nonnull align 8 dereferenceable(24) %4, ptr noundef nonnull @.str.9)
          to label %46 unwind label %93

46:                                               ; preds = %44
  %47 = invoke noundef zeroext i1 @_ZN7ArgvMap6mustDoERKNSt3__112basic_stringIcNS0_11char_traitsIcEENS0_9allocatorIcEEEE(ptr noundef nonnull align 8 dereferenceable(168) %43, ptr noundef nonnull align 8 dereferenceable(24) %4)
          to label %48 unwind label %95

48:                                               ; preds = %46
  %49 = zext i1 %47 to i8
  store i8 %49, ptr %0, align 8, !tbaa !35
  %50 = call noundef ptr @_ZNSt3__112basic_stringIcNS_11char_traitsIcEENS_9allocatorIcEEED1Ev(ptr noundef nonnull align 8 dereferenceable(24) %4) #26
  call void @llvm.lifetime.end.p0(i64 24, ptr nonnull %4) #26
  call void @llvm.lifetime.start.p0(i64 24, ptr nonnull %5) #26
  %51 = invoke noundef nonnull align 8 dereferenceable(168) ptr @_Z3argv()
          to label %52 unwind label %102

52:                                               ; preds = %48
  call void @llvm.lifetime.start.p0(i64 24, ptr nonnull %6) #26
  %53 = invoke noundef ptr @_ZNSt3__112basic_stringIcNS_11char_traitsIcEENS_9allocatorIcEEEC1B7v160006IDnEEPKc(ptr noundef nonnull align 8 dereferenceable(24) %6, ptr noundef nonnull @.str.10)
          to label %54 unwind label %106

54:                                               ; preds = %52
  %55 = invoke noundef nonnull align 8 dereferenceable(24) ptr @_ZN7ArgvMapixERKNSt3__112basic_stringIcNS0_11char_traitsIcEENS0_9allocatorIcEEEE(ptr noundef nonnull align 8 dereferenceable(168) %51, ptr noundef nonnull align 8 dereferenceable(24) %6)
          to label %56 unwind label %108

56:                                               ; preds = %54
  %57 = invoke noundef ptr @_ZNSt3__112basic_stringIcNS_11char_traitsIcEENS_9allocatorIcEEEC1ERKS5_(ptr noundef nonnull align 8 dereferenceable(24) %5, ptr noundef nonnull align 8 dereferenceable(24) %55)
          to label %58 unwind label %108

58:                                               ; preds = %56
  %59 = call noundef ptr @_ZNSt3__112basic_stringIcNS_11char_traitsIcEENS_9allocatorIcEEED1Ev(ptr noundef nonnull align 8 dereferenceable(24) %6) #26
  call void @llvm.lifetime.end.p0(i64 24, ptr nonnull %6) #26
  %60 = call noundef zeroext i1 @_ZNKSt3__112basic_stringIcNS_11char_traitsIcEENS_9allocatorIcEEE5emptyB7v160006Ev(ptr noundef nonnull align 8 dereferenceable(24) %5) #26
  br i1 %60, label %61, label %115

61:                                               ; preds = %58
  %62 = call noundef nonnull align 8 dereferenceable(8) ptr @_ZNSt3__110unique_ptrI8AuthLua4NS_14default_deleteIS1_EEEaSB7v160006EDn(ptr noundef nonnull align 8 dereferenceable(8) %12, ptr null) #26
  br label %128

63:                                               ; preds = %1
  %64 = landingpad { ptr, i32 }
          cleanup
  %65 = extractvalue { ptr, i32 } %64, 0
  %66 = extractvalue { ptr, i32 } %64, 1
  br label %189

67:                                               ; preds = %20
  %68 = landingpad { ptr, i32 }
          cleanup
  %69 = extractvalue { ptr, i32 } %68, 0
  %70 = extractvalue { ptr, i32 } %68, 1
  br label %185

71:                                               ; preds = %39, %30, %23
  %72 = landingpad { ptr, i32 }
          cleanup
  %73 = extractvalue { ptr, i32 } %72, 0
  %74 = extractvalue { ptr, i32 } %72, 1
  br label %181

75:                                               ; preds = %26
  %76 = landingpad { ptr, i32 }
          cleanup
  br label %80

77:                                               ; preds = %28
  %78 = landingpad { ptr, i32 }
          cleanup
  %79 = call noundef ptr @_ZNSt3__112basic_stringIcNS_11char_traitsIcEENS_9allocatorIcEEED1Ev(ptr noundef nonnull align 8 dereferenceable(24) %2) #26
  br label %80

80:                                               ; preds = %77, %75
  %81 = phi { ptr, i32 } [ %78, %77 ], [ %76, %75 ]
  %82 = extractvalue { ptr, i32 } %81, 0
  %83 = extractvalue { ptr, i32 } %81, 1
  call void @llvm.lifetime.end.p0(i64 24, ptr nonnull %2) #26
  br label %181

84:                                               ; preds = %35
  %85 = landingpad { ptr, i32 }
          cleanup
  br label %89

86:                                               ; preds = %37
  %87 = landingpad { ptr, i32 }
          cleanup
  %88 = call noundef ptr @_ZNSt3__112basic_stringIcNS_11char_traitsIcEENS_9allocatorIcEEED1Ev(ptr noundef nonnull align 8 dereferenceable(24) %3) #26
  br label %89

89:                                               ; preds = %86, %84
  %90 = phi { ptr, i32 } [ %87, %86 ], [ %85, %84 ]
  %91 = extractvalue { ptr, i32 } %90, 0
  %92 = extractvalue { ptr, i32 } %90, 1
  call void @llvm.lifetime.end.p0(i64 24, ptr nonnull %3) #26
  br label %181

93:                                               ; preds = %44
  %94 = landingpad { ptr, i32 }
          cleanup
  br label %98

95:                                               ; preds = %46
  %96 = landingpad { ptr, i32 }
          cleanup
  %97 = call noundef ptr @_ZNSt3__112basic_stringIcNS_11char_traitsIcEENS_9allocatorIcEEED1Ev(ptr noundef nonnull align 8 dereferenceable(24) %4) #26
  br label %98

98:                                               ; preds = %95, %93
  %99 = phi { ptr, i32 } [ %96, %95 ], [ %94, %93 ]
  %100 = extractvalue { ptr, i32 } %99, 0
  %101 = extractvalue { ptr, i32 } %99, 1
  call void @llvm.lifetime.end.p0(i64 24, ptr nonnull %4) #26
  br label %181

102:                                              ; preds = %48
  %103 = landingpad { ptr, i32 }
          cleanup
  %104 = extractvalue { ptr, i32 } %103, 0
  %105 = extractvalue { ptr, i32 } %103, 1
  br label %178

106:                                              ; preds = %52
  %107 = landingpad { ptr, i32 }
          cleanup
  br label %111

108:                                              ; preds = %56, %54
  %109 = landingpad { ptr, i32 }
          cleanup
  %110 = call noundef ptr @_ZNSt3__112basic_stringIcNS_11char_traitsIcEENS_9allocatorIcEEED1Ev(ptr noundef nonnull align 8 dereferenceable(24) %6) #26
  br label %111

111:                                              ; preds = %108, %106
  %112 = phi { ptr, i32 } [ %109, %108 ], [ %107, %106 ]
  %113 = extractvalue { ptr, i32 } %112, 0
  %114 = extractvalue { ptr, i32 } %112, 1
  call void @llvm.lifetime.end.p0(i64 24, ptr nonnull %6) #26
  br label %178

115:                                              ; preds = %58
  call void @llvm.lifetime.start.p0(i64 8, ptr nonnull %7) #26
  invoke void @_ZNSt3__111make_uniqueB7v160006I8AuthLua4JEEENS_11__unique_ifIT_E15__unique_singleEDpOT0_(ptr nonnull sret(%"class.std::__1::unique_ptr.16") align 8 %7)
          to label %116 unwind label %120

116:                                              ; preds = %115
  %117 = call noundef nonnull align 8 dereferenceable(8) ptr @_ZNSt3__110unique_ptrI8AuthLua4NS_14default_deleteIS1_EEEaSB7v160006EOS4_(ptr noundef nonnull align 8 dereferenceable(8) %12, ptr noundef nonnull align 8 dereferenceable(8) %7) #26
  %118 = call noundef ptr @_ZNSt3__110unique_ptrI8AuthLua4NS_14default_deleteIS1_EEED1B7v160006Ev(ptr noundef nonnull align 8 dereferenceable(8) %7) #26
  call void @llvm.lifetime.end.p0(i64 8, ptr nonnull %7) #26
  %119 = call noundef ptr @_ZNKSt3__110unique_ptrI8AuthLua4NS_14default_deleteIS1_EEEptB7v160006Ev(ptr noundef nonnull align 8 dereferenceable(8) %12) #26
  invoke void @_ZN8BaseLua48loadFileERKNSt3__112basic_stringIcNS0_11char_traitsIcEENS0_9allocatorIcEEEE(ptr noundef nonnull align 8 dereferenceable(40) %119, ptr noundef nonnull align 8 dereferenceable(24) %5)
          to label %128 unwind label %124

120:                                              ; preds = %115
  %121 = landingpad { ptr, i32 }
          cleanup
  %122 = extractvalue { ptr, i32 } %121, 0
  %123 = extractvalue { ptr, i32 } %121, 1
  call void @llvm.lifetime.end.p0(i64 8, ptr nonnull %7) #26
  br label %174

124:                                              ; preds = %128, %116
  %125 = landingpad { ptr, i32 }
          cleanup
  %126 = extractvalue { ptr, i32 } %125, 0
  %127 = extractvalue { ptr, i32 } %125, 1
  br label %174

128:                                              ; preds = %116, %61
  %129 = invoke noundef nonnull align 8 dereferenceable(168) ptr @_Z3argv()
          to label %130 unwind label %124

130:                                              ; preds = %128
  call void @llvm.lifetime.start.p0(i64 24, ptr nonnull %8) #26
  %131 = invoke noundef ptr @_ZNSt3__112basic_stringIcNS_11char_traitsIcEENS_9allocatorIcEEEC1B7v160006IDnEEPKc(ptr noundef nonnull align 8 dereferenceable(24) %8, ptr noundef nonnull @.str.11)
          to label %132 unwind label %141

132:                                              ; preds = %130
  %133 = invoke noundef nonnull align 8 dereferenceable(24) ptr @_ZN7ArgvMapixERKNSt3__112basic_stringIcNS0_11char_traitsIcEENS0_9allocatorIcEEEE(ptr noundef nonnull align 8 dereferenceable(168) %129, ptr noundef nonnull align 8 dereferenceable(24) %8)
          to label %134 unwind label %143

134:                                              ; preds = %132
  %135 = invoke noundef nonnull align 8 dereferenceable(24) ptr @_ZNSt3__112basic_stringIcNS_11char_traitsIcEENS_9allocatorIcEEEaSERKS5_(ptr noundef nonnull align 8 dereferenceable(24) %5, ptr noundef nonnull align 8 dereferenceable(24) %133)
          to label %136 unwind label %143

136:                                              ; preds = %134
  %137 = call noundef ptr @_ZNSt3__112basic_stringIcNS_11char_traitsIcEENS_9allocatorIcEEED1Ev(ptr noundef nonnull align 8 dereferenceable(24) %8) #26
  call void @llvm.lifetime.end.p0(i64 24, ptr nonnull %8) #26
  %138 = call noundef zeroext i1 @_ZNKSt3__112basic_stringIcNS_11char_traitsIcEENS_9allocatorIcEEE5emptyB7v160006Ev(ptr noundef nonnull align 8 dereferenceable(24) %5) #26
  br i1 %138, label %139, label %150

139:                                              ; preds = %136
  %140 = call noundef nonnull align 8 dereferenceable(8) ptr @_ZNSt3__110unique_ptrI8AuthLua4NS_14default_deleteIS1_EEEaSB7v160006EDn(ptr noundef nonnull align 8 dereferenceable(8) %14, ptr null) #26
  br label %172

141:                                              ; preds = %130
  %142 = landingpad { ptr, i32 }
          cleanup
  br label %146

143:                                              ; preds = %134, %132
  %144 = landingpad { ptr, i32 }
          cleanup
  %145 = call noundef ptr @_ZNSt3__112basic_stringIcNS_11char_traitsIcEENS_9allocatorIcEEED1Ev(ptr noundef nonnull align 8 dereferenceable(24) %8) #26
  br label %146

146:                                              ; preds = %143, %141
  %147 = phi { ptr, i32 } [ %144, %143 ], [ %142, %141 ]
  %148 = extractvalue { ptr, i32 } %147, 0
  %149 = extractvalue { ptr, i32 } %147, 1
  call void @llvm.lifetime.end.p0(i64 24, ptr nonnull %8) #26
  br label %174

150:                                              ; preds = %136
  call void @llvm.lifetime.start.p0(i64 8, ptr nonnull %9) #26
  invoke void @_ZNSt3__111make_uniqueB7v160006I8AuthLua4JEEENS_11__unique_ifIT_E15__unique_singleEDpOT0_(ptr nonnull sret(%"class.std::__1::unique_ptr.16") align 8 %9)
          to label %151 unwind label %155

151:                                              ; preds = %150
  %152 = call noundef nonnull align 8 dereferenceable(8) ptr @_ZNSt3__110unique_ptrI8AuthLua4NS_14default_deleteIS1_EEEaSB7v160006EOS4_(ptr noundef nonnull align 8 dereferenceable(8) %14, ptr noundef nonnull align 8 dereferenceable(8) %9) #26
  %153 = call noundef ptr @_ZNSt3__110unique_ptrI8AuthLua4NS_14default_deleteIS1_EEED1B7v160006Ev(ptr noundef nonnull align 8 dereferenceable(8) %9) #26
  call void @llvm.lifetime.end.p0(i64 8, ptr nonnull %9) #26
  %154 = call noundef ptr @_ZNKSt3__110unique_ptrI8AuthLua4NS_14default_deleteIS1_EEEptB7v160006Ev(ptr noundef nonnull align 8 dereferenceable(8) %14) #26
  invoke void @_ZN8BaseLua48loadFileERKNSt3__112basic_stringIcNS0_11char_traitsIcEENS0_9allocatorIcEEEE(ptr noundef nonnull align 8 dereferenceable(40) %154, ptr noundef nonnull align 8 dereferenceable(24) %5)
          to label %172 unwind label %159

155:                                              ; preds = %150
  %156 = landingpad { ptr, i32 }
          cleanup
  %157 = extractvalue { ptr, i32 } %156, 0
  %158 = extractvalue { ptr, i32 } %156, 1
  call void @llvm.lifetime.end.p0(i64 8, ptr nonnull %9) #26
  br label %174

159:                                              ; preds = %151
  %160 = landingpad { ptr, i32 }
          cleanup
          catch ptr @_ZTISt13runtime_error
  %161 = extractvalue { ptr, i32 } %160, 0
  %162 = extractvalue { ptr, i32 } %160, 1
  %163 = call i32 @llvm.eh.typeid.for(ptr nonnull @_ZTISt13runtime_error) #26
  %164 = icmp eq i32 %162, %163
  br i1 %164, label %165, label %174

165:                                              ; preds = %159
  %166 = call ptr @__cxa_begin_catch(ptr %161) #26
  %167 = call noundef nonnull align 8 dereferenceable(8) ptr @_ZNSt3__110unique_ptrI8AuthLua4NS_14default_deleteIS1_EEEaSB7v160006EDn(ptr noundef nonnull align 8 dereferenceable(8) %14, ptr null) #26
  invoke void @__cxa_end_catch()
          to label %172 unwind label %168

168:                                              ; preds = %165
  %169 = landingpad { ptr, i32 }
          cleanup
  %170 = extractvalue { ptr, i32 } %169, 0
  %171 = extractvalue { ptr, i32 } %169, 1
  br label %174

172:                                              ; preds = %165, %151, %139
  %173 = call noundef ptr @_ZNSt3__112basic_stringIcNS_11char_traitsIcEENS_9allocatorIcEEED1Ev(ptr noundef nonnull align 8 dereferenceable(24) %5) #26
  call void @llvm.lifetime.end.p0(i64 24, ptr nonnull %5) #26
  ret ptr %0

174:                                              ; preds = %168, %159, %155, %146, %124, %120
  %175 = phi i32 [ %171, %168 ], [ %162, %159 ], [ %158, %155 ], [ %149, %146 ], [ %127, %124 ], [ %123, %120 ]
  %176 = phi ptr [ %170, %168 ], [ %161, %159 ], [ %157, %155 ], [ %148, %146 ], [ %126, %124 ], [ %122, %120 ]
  %177 = call noundef ptr @_ZNSt3__112basic_stringIcNS_11char_traitsIcEENS_9allocatorIcEEED1Ev(ptr noundef nonnull align 8 dereferenceable(24) %5) #26
  br label %178

178:                                              ; preds = %174, %111, %102
  %179 = phi i32 [ %175, %174 ], [ %114, %111 ], [ %105, %102 ]
  %180 = phi ptr [ %176, %174 ], [ %113, %111 ], [ %104, %102 ]
  call void @llvm.lifetime.end.p0(i64 24, ptr nonnull %5) #26
  br label %181

181:                                              ; preds = %178, %98, %89, %80, %71
  %182 = phi i32 [ %179, %178 ], [ %101, %98 ], [ %74, %71 ], [ %92, %89 ], [ %83, %80 ]
  %183 = phi ptr [ %180, %178 ], [ %100, %98 ], [ %73, %71 ], [ %91, %89 ], [ %82, %80 ]
  %184 = call noundef ptr @_ZN12DNSSECKeeperD1Ev(ptr noundef nonnull align 8 dereferenceable(25) %21) #26
  br label %185

185:                                              ; preds = %181, %67
  %186 = phi i32 [ %182, %181 ], [ %70, %67 ]
  %187 = phi ptr [ %183, %181 ], [ %69, %67 ]
  %188 = call noundef ptr @_ZN12UeberBackendD1Ev(ptr noundef nonnull align 8 dereferenceable(165) %18) #26
  br label %189

189:                                              ; preds = %185, %63
  %190 = phi i32 [ %186, %185 ], [ %66, %63 ]
  %191 = phi ptr [ %187, %185 ], [ %65, %63 ]
  %192 = call noundef ptr @_ZNSt3__110unique_ptrI8AuthLua4NS_14default_deleteIS1_EEED1B7v160006Ev(ptr noundef nonnull align 8 dereferenceable(8) %16) #26
  %193 = call noundef ptr @_ZNSt3__110unique_ptrI8AuthLua4NS_14default_deleteIS1_EEED1B7v160006Ev(ptr noundef nonnull align 8 dereferenceable(8) %14) #26
  %194 = call noundef ptr @_ZNSt3__110unique_ptrI8AuthLua4NS_14default_deleteIS1_EEED1B7v160006Ev(ptr noundef nonnull align 8 dereferenceable(8) %12) #26
  %195 = call noundef ptr @_ZN7SOADataD1Ev(ptr noundef nonnull align 8 dereferenceable(108) %10) #26
  %196 = insertvalue { ptr, i32 } poison, ptr %191, 0
  %197 = insertvalue { ptr, i32 } %196, i32 %190, 1
  resume { ptr, i32 } %197
}

; Function Attrs: noinline ssp uwtable(sync)
define linkonce_odr noundef ptr @_ZN7SOADataC1Ev(ptr noundef nonnull returned align 8 dereferenceable(108) %0) unnamed_addr #0 align 2 {
  %2 = tail call noundef ptr @_ZN7SOADataC2Ev(ptr noundef nonnull align 8 dereferenceable(108) %0)
  ret ptr %0
}

; Function Attrs: noinline nounwind ssp uwtable(sync)
define linkonce_odr noundef ptr @_ZNSt3__110unique_ptrI8AuthLua4NS_14default_deleteIS1_EEEC1B7v160006ILb1EvEEv(ptr noundef nonnull returned align 8 dereferenceable(8) %0) unnamed_addr #2 align 2 {
  %2 = tail call noundef ptr @_ZNSt3__110unique_ptrI8AuthLua4NS_14default_deleteIS1_EEEC2B7v160006ILb1EvEEv(ptr noundef nonnull align 8 dereferenceable(8) %0) #26
  ret ptr %0
}

declare noundef ptr @_ZN12UeberBackendC1ERKNSt3__112basic_stringIcNS0_11char_traitsIcEENS0_9allocatorIcEEEE(ptr noundef nonnull returned align 8 dereferenceable(165), ptr noundef nonnull align 8 dereferenceable(24)) unnamed_addr #5

declare i32 @__gxx_personality_v0(...)

; Function Attrs: noinline ssp uwtable(sync)
define linkonce_odr noundef ptr @_ZN12DNSSECKeeperC1EP12UeberBackend(ptr noundef nonnull returned align 8 dereferenceable(25) %0, ptr noundef %1) unnamed_addr #0 align 2 {
  %3 = tail call noundef ptr @_ZN12DNSSECKeeperC2EP12UeberBackend(ptr noundef nonnull align 8 dereferenceable(25) %0, ptr noundef %1)
  ret ptr %0
}

; Function Attrs: mustprogress noinline nounwind ssp uwtable(sync)
define linkonce_odr hidden noundef i64 @_ZNSt3__113__atomic_baseImLb1EEppB7v160006Ev(ptr noundef nonnull align 8 dereferenceable(8) %0) local_unnamed_addr #6 align 2 {
  %2 = tail call noundef i64 @_ZNSt3__113__atomic_baseImLb1EE9fetch_addB7v160006EmNS_12memory_orderE(ptr noundef nonnull align 8 dereferenceable(8) %0, i64 noundef 1, i32 noundef 5) #26
  %3 = add i64 %2, 1
  ret i64 %3
}

declare noundef nonnull align 8 dereferenceable(168) ptr @_Z3argv() local_unnamed_addr #5

declare noundef zeroext i1 @_ZN7ArgvMap6mustDoERKNSt3__112basic_stringIcNS0_11char_traitsIcEENS0_9allocatorIcEEEE(ptr noundef nonnull align 8 dereferenceable(168), ptr noundef nonnull align 8 dereferenceable(24)) local_unnamed_addr #5

; Function Attrs: mustprogress nocallback nofree nosync nounwind willreturn memory(argmem: readwrite)
declare void @llvm.lifetime.start.p0(i64 immarg, ptr nocapture) #1

; Function Attrs: noinline ssp uwtable(sync)
define linkonce_odr noundef ptr @_ZNSt3__112basic_stringIcNS_11char_traitsIcEENS_9allocatorIcEEEC1B7v160006IDnEEPKc(ptr noundef nonnull returned align 8 dereferenceable(24) %0, ptr noundef %1) unnamed_addr #0 align 2 {
  %3 = tail call noundef ptr @_ZNSt3__112basic_stringIcNS_11char_traitsIcEENS_9allocatorIcEEEC2B7v160006IDnEEPKc(ptr noundef nonnull align 8 dereferenceable(24) %0, ptr noundef %1)
  ret ptr %0
}

; Function Attrs: noinline nounwind ssp uwtable(sync)
declare noundef ptr @_ZNSt3__112basic_stringIcNS_11char_traitsIcEENS_9allocatorIcEEED1Ev(ptr noundef nonnull returned align 8 dereferenceable(24)) unnamed_addr #2 align 2

; Function Attrs: mustprogress nocallback nofree nosync nounwind willreturn memory(argmem: readwrite)
declare void @llvm.lifetime.end.p0(i64 immarg, ptr nocapture) #1

declare noundef nonnull align 8 dereferenceable(24) ptr @_ZN7ArgvMapixERKNSt3__112basic_stringIcNS0_11char_traitsIcEENS0_9allocatorIcEEEE(ptr noundef nonnull align 8 dereferenceable(168), ptr noundef nonnull align 8 dereferenceable(24)) local_unnamed_addr #5

declare noundef ptr @_ZNSt3__112basic_stringIcNS_11char_traitsIcEENS_9allocatorIcEEEC1ERKS5_(ptr noundef nonnull returned align 8 dereferenceable(24), ptr noundef nonnull align 8 dereferenceable(24)) unnamed_addr #5

; Function Attrs: mustprogress noinline nounwind ssp uwtable(sync)
define linkonce_odr hidden noundef zeroext i1 @_ZNKSt3__112basic_stringIcNS_11char_traitsIcEENS_9allocatorIcEEE5emptyB7v160006Ev(ptr noundef nonnull align 8 dereferenceable(24) %0) local_unnamed_addr #6 align 2 {
  %2 = tail call noundef i64 @_ZNKSt3__112basic_stringIcNS_11char_traitsIcEENS_9allocatorIcEEE4sizeB7v160006Ev(ptr noundef nonnull align 8 dereferenceable(24) %0) #26
  %3 = icmp eq i64 %2, 0
  ret i1 %3
}

; Function Attrs: mustprogress noinline nounwind ssp uwtable(sync)
define linkonce_odr hidden noundef nonnull align 8 dereferenceable(8) ptr @_ZNSt3__110unique_ptrI8AuthLua4NS_14default_deleteIS1_EEEaSB7v160006EDn(ptr noundef nonnull align 8 dereferenceable(8) %0, ptr %1) local_unnamed_addr #6 align 2 {
  tail call void @_ZNSt3__110unique_ptrI8AuthLua4NS_14default_deleteIS1_EEE5resetB7v160006EPS1_(ptr noundef nonnull align 8 dereferenceable(8) %0, ptr noundef null) #26
  ret ptr %0
}

; Function Attrs: mustprogress noinline ssp uwtable(sync)
define linkonce_odr hidden void @_ZNSt3__111make_uniqueB7v160006I8AuthLua4JEEENS_11__unique_ifIT_E15__unique_singleEDpOT0_(ptr noalias sret(%"class.std::__1::unique_ptr.16") align 8 %0) local_unnamed_addr #4 personality ptr @__gxx_personality_v0 {
  %2 = tail call noalias noundef nonnull dereferenceable(136) ptr @_Znwm(i64 noundef 136) #27
  %3 = invoke noundef ptr @_ZN8AuthLua4C1Ev(ptr noundef nonnull align 8 dereferenceable(136) %2)
          to label %4 unwind label %6

4:                                                ; preds = %1
  %5 = tail call noundef ptr @_ZNSt3__110unique_ptrI8AuthLua4NS_14default_deleteIS1_EEEC1B7v160006ILb1EvEEPS1_(ptr noundef nonnull align 8 dereferenceable(8) %0, ptr noundef nonnull %2) #26
  ret void

6:                                                ; preds = %1
  %7 = landingpad { ptr, i32 }
          cleanup
  tail call void @_ZdlPv(ptr noundef %2) #28
  resume { ptr, i32 } %7
}

; Function Attrs: mustprogress noinline nounwind ssp uwtable(sync)
define linkonce_odr hidden noundef nonnull align 8 dereferenceable(8) ptr @_ZNSt3__110unique_ptrI8AuthLua4NS_14default_deleteIS1_EEEaSB7v160006EOS4_(ptr noundef nonnull align 8 dereferenceable(8) %0, ptr noundef nonnull align 8 dereferenceable(8) %1) local_unnamed_addr #6 align 2 {
  %3 = tail call noundef ptr @_ZNSt3__110unique_ptrI8AuthLua4NS_14default_deleteIS1_EEE7releaseB7v160006Ev(ptr noundef nonnull align 8 dereferenceable(8) %1) #26
  tail call void @_ZNSt3__110unique_ptrI8AuthLua4NS_14default_deleteIS1_EEE5resetB7v160006EPS1_(ptr noundef nonnull align 8 dereferenceable(8) %0, ptr noundef %3) #26
  %4 = tail call noundef nonnull align 1 dereferenceable(1) ptr @_ZNSt3__110unique_ptrI8AuthLua4NS_14default_deleteIS1_EEE11get_deleterB7v160006Ev(ptr noundef nonnull align 8 dereferenceable(8) %1) #26
  %5 = tail call noundef nonnull align 1 dereferenceable(1) ptr @_ZNSt3__117__compressed_pairIP8AuthLua4NS_14default_deleteIS1_EEE6secondB7v160006Ev(ptr noundef nonnull align 8 dereferenceable(8) %0) #26
  ret ptr %0
}

; Function Attrs: noinline nounwind ssp uwtable(sync)
define linkonce_odr hidden noundef ptr @_ZNSt3__110unique_ptrI8AuthLua4NS_14default_deleteIS1_EEED1B7v160006Ev(ptr noundef nonnull returned align 8 dereferenceable(8) %0) unnamed_addr #2 align 2 {
  %2 = tail call noundef ptr @_ZNSt3__110unique_ptrI8AuthLua4NS_14default_deleteIS1_EEED2B7v160006Ev(ptr noundef nonnull align 8 dereferenceable(8) %0) #26
  ret ptr %0
}

; Function Attrs: mustprogress noinline nounwind ssp uwtable(sync)
define linkonce_odr hidden noundef ptr @_ZNKSt3__110unique_ptrI8AuthLua4NS_14default_deleteIS1_EEEptB7v160006Ev(ptr noundef nonnull align 8 dereferenceable(8) %0) local_unnamed_addr #6 align 2 {
  %2 = tail call noundef nonnull align 8 dereferenceable(8) ptr @_ZNKSt3__117__compressed_pairIP8AuthLua4NS_14default_deleteIS1_EEE5firstB7v160006Ev(ptr noundef nonnull align 8 dereferenceable(8) %0) #26
  %3 = load ptr, ptr %2, align 8, !tbaa !36
  ret ptr %3
}

declare void @_ZN8BaseLua48loadFileERKNSt3__112basic_stringIcNS0_11char_traitsIcEENS0_9allocatorIcEEEE(ptr noundef nonnull align 8 dereferenceable(40), ptr noundef nonnull align 8 dereferenceable(24)) local_unnamed_addr #5

declare noundef nonnull align 8 dereferenceable(24) ptr @_ZNSt3__112basic_stringIcNS_11char_traitsIcEENS_9allocatorIcEEEaSERKS5_(ptr noundef nonnull align 8 dereferenceable(24), ptr noundef nonnull align 8 dereferenceable(24)) local_unnamed_addr #5

; Function Attrs: nofree nosync nounwind memory(none)
declare i32 @llvm.eh.typeid.for(ptr) #7

declare ptr @__cxa_begin_catch(ptr) local_unnamed_addr

declare void @__cxa_end_catch() local_unnamed_addr

; Function Attrs: noinline nounwind ssp uwtable(sync)
define linkonce_odr noundef ptr @_ZN12DNSSECKeeperD1Ev(ptr noundef nonnull returned align 8 dereferenceable(25) %0) unnamed_addr #2 align 2 {
  %2 = tail call noundef ptr @_ZN12DNSSECKeeperD2Ev(ptr noundef nonnull align 8 dereferenceable(25) %0) #26
  ret ptr %0
}

; Function Attrs: nounwind
declare noundef ptr @_ZN12UeberBackendD1Ev(ptr noundef nonnull returned align 8 dereferenceable(165)) unnamed_addr #8

; Function Attrs: noinline nounwind ssp uwtable(sync)
define linkonce_odr noundef ptr @_ZN7SOADataD1Ev(ptr noundef nonnull returned align 8 dereferenceable(108) %0) unnamed_addr #2 align 2 {
  %2 = tail call noundef ptr @_ZN7SOADataD2Ev(ptr noundef nonnull align 8 dereferenceable(108) %0) #26
  ret ptr %0
}

; Function Attrs: noinline ssp uwtable(sync)
define noundef nonnull ptr @_ZN13PacketHandlerC1Ev(ptr noundef nonnull returned align 8 dereferenceable(344) %0) unnamed_addr #0 align 2 {
  %2 = tail call noundef ptr @_ZN13PacketHandlerC2Ev(ptr noundef nonnull align 8 dereferenceable(344) %0)
  ret ptr %0
}

; Function Attrs: mustprogress nofree noinline norecurse nosync nounwind ssp willreturn memory(none) uwtable(sync)
define noundef nonnull ptr @_ZN13PacketHandler10getBackendEv(ptr noundef nonnull readnone align 8 dereferenceable(344) %0) local_unnamed_addr #9 align 2 {
  %2 = getelementptr inbounds %class.PacketHandler, ptr %0, i64 0, i32 9
  ret ptr %2
}

; Function Attrs: noinline nounwind ssp uwtable(sync)
define noundef nonnull ptr @_ZN13PacketHandlerD2Ev(ptr noundef nonnull returned align 8 dereferenceable(344) %0) unnamed_addr #2 align 2 {
  %2 = tail call noundef i64 @_ZNSt3__113__atomic_baseImLb1EEmmB7v160006Ev(ptr noundef nonnull align 8 dereferenceable(8) @_ZN13PacketHandler7s_countE) #26
  %3 = getelementptr inbounds %class.PacketHandler, ptr %0, i64 0, i32 10
  %4 = tail call noundef ptr @_ZN12DNSSECKeeperD1Ev(ptr noundef nonnull align 8 dereferenceable(25) %3) #26
  %5 = getelementptr inbounds %class.PacketHandler, ptr %0, i64 0, i32 9
  %6 = tail call noundef ptr @_ZN12UeberBackendD1Ev(ptr noundef nonnull align 8 dereferenceable(165) %5) #26
  %7 = getelementptr inbounds %class.PacketHandler, ptr %0, i64 0, i32 8
  %8 = tail call noundef ptr @_ZNSt3__110unique_ptrI8AuthLua4NS_14default_deleteIS1_EEED1B7v160006Ev(ptr noundef nonnull align 8 dereferenceable(8) %7) #26
  %9 = getelementptr inbounds %class.PacketHandler, ptr %0, i64 0, i32 7
  %10 = tail call noundef ptr @_ZNSt3__110unique_ptrI8AuthLua4NS_14default_deleteIS1_EEED1B7v160006Ev(ptr noundef nonnull align 8 dereferenceable(8) %9) #26
  %11 = getelementptr inbounds %class.PacketHandler, ptr %0, i64 0, i32 6
  %12 = tail call noundef ptr @_ZNSt3__110unique_ptrI8AuthLua4NS_14default_deleteIS1_EEED1B7v160006Ev(ptr noundef nonnull align 8 dereferenceable(8) %11) #26
  %13 = getelementptr inbounds %class.PacketHandler, ptr %0, i64 0, i32 5
  %14 = tail call noundef ptr @_ZN7SOADataD1Ev(ptr noundef nonnull align 8 dereferenceable(108) %13) #26
  ret ptr %0
}

; Function Attrs: mustprogress noinline nounwind ssp uwtable(sync)
define linkonce_odr hidden noundef i64 @_ZNSt3__113__atomic_baseImLb1EEmmB7v160006Ev(ptr noundef nonnull align 8 dereferenceable(8) %0) local_unnamed_addr #6 align 2 {
  %2 = tail call noundef i64 @_ZNSt3__113__atomic_baseImLb1EE9fetch_subB7v160006EmNS_12memory_orderE(ptr noundef nonnull align 8 dereferenceable(8) %0, i64 noundef 1, i32 noundef 5) #26
  %3 = add i64 %2, -1
  ret i64 %3
}

; Function Attrs: noinline nounwind ssp uwtable(sync)
define noundef nonnull ptr @_ZN13PacketHandlerD1Ev(ptr noundef nonnull returned align 8 dereferenceable(344) %0) unnamed_addr #2 align 2 {
  %2 = tail call noundef ptr @_ZN13PacketHandlerD2Ev(ptr noundef nonnull align 8 dereferenceable(344) %0) #26
  ret ptr %0
}

; Function Attrs: mustprogress noinline ssp uwtable(sync)
define noundef zeroext i1 @_ZN13PacketHandler10addCDNSKEYER9DNSPacketRNSt3__110unique_ptrIS0_NS2_14default_deleteIS0_EEEE(ptr noundef nonnull align 8 dereferenceable(344) %0, ptr noundef nonnull align 8 dereferenceable(648) %1, ptr noundef nonnull align 8 dereferenceable(8) %2) local_unnamed_addr #4 align 2 personality ptr @__gxx_personality_v0 {
  %4 = alloca %"class.std::__1::basic_string", align 8
  %5 = alloca %struct.DNSZoneRecord, align 8
  %6 = alloca %"class.std::__1::shared_ptr.53", align 8
  %7 = alloca %"class.std::__1::vector.102", align 8
  %8 = alloca %"class.std::__1::__wrap_iter.111", align 8
  %9 = alloca %"class.std::__1::__wrap_iter.111", align 8
  %10 = alloca %"class.std::__1::shared_ptr.53", align 8
  %11 = alloca %"class.std::__1::shared_ptr.112", align 8
  %12 = alloca %struct.DNSZoneRecord, align 8
  %13 = alloca %"class.std::__1::basic_string", align 8
  %14 = alloca %class.QType, align 2
  call void @llvm.lifetime.start.p0(i64 24, ptr nonnull %4) #26
  %15 = call noundef ptr @_ZNSt3__112basic_stringIcNS_11char_traitsIcEENS_9allocatorIcEEEC1B7v160006Ev(ptr noundef nonnull align 8 dereferenceable(24) %4) #26
  %16 = getelementptr inbounds %class.PacketHandler, ptr %0, i64 0, i32 10
  %17 = getelementptr inbounds %class.DNSPacket, ptr %1, i64 0, i32 2
  invoke void @_ZN12DNSSECKeeper17getPublishCDNSKEYERK7DNSNameRNSt3__112basic_stringIcNS3_11char_traitsIcEENS3_9allocatorIcEEEE(ptr noundef nonnull align 8 dereferenceable(25) %16, ptr noundef nonnull align 8 dereferenceable(24) %17, ptr noundef nonnull align 8 dereferenceable(24) %4)
          to label %18 unwind label %20

18:                                               ; preds = %3
  %19 = call noundef zeroext i1 @_ZNKSt3__112basic_stringIcNS_11char_traitsIcEENS_9allocatorIcEEE5emptyB7v160006Ev(ptr noundef nonnull align 8 dereferenceable(24) %4) #26
  br i1 %19, label %136, label %22

20:                                               ; preds = %3
  %21 = landingpad { ptr, i32 }
          cleanup
  br label %139

22:                                               ; preds = %18
  call void @llvm.lifetime.start.p0(i64 104, ptr nonnull %5) #26
  %23 = invoke noundef ptr @_ZN13DNSZoneRecordC1Ev(ptr noundef nonnull align 8 dereferenceable(104) %5)
          to label %24 unwind label %38

24:                                               ; preds = %22
  %25 = getelementptr inbounds %struct.DNSZoneRecord, ptr %5, i64 0, i32 8
  %26 = getelementptr inbounds %struct.DNSZoneRecord, ptr %5, i64 0, i32 8, i32 2
  store i16 60, ptr %26, align 8, !tbaa !37
  %27 = getelementptr inbounds %class.PacketHandler, ptr %0, i64 0, i32 5, i32 8
  %28 = load i32, ptr %27, align 4, !tbaa !42
  %29 = getelementptr inbounds %struct.DNSZoneRecord, ptr %5, i64 0, i32 8, i32 4
  store i32 %28, ptr %29, align 4, !tbaa !43
  %30 = invoke noundef nonnull align 8 dereferenceable(24) ptr @_ZN7DNSNameaSERKS_(ptr noundef nonnull align 8 dereferenceable(24) %25, ptr noundef nonnull align 8 dereferenceable(24) %17)
          to label %31 unwind label %40

31:                                               ; preds = %24
  %32 = getelementptr inbounds %struct.DNSZoneRecord, ptr %5, i64 0, i32 5
  store i8 1, ptr %32, align 8, !tbaa !44
  %33 = call noundef zeroext i1 @_ZNSt3__1eqB7v160006IcNS_11char_traitsIcEENS_9allocatorIcEEEEbRKNS_12basic_stringIT_T0_T1_EEPKS6_(ptr noundef nonnull align 8 dereferenceable(24) %4, ptr noundef nonnull @.str.12) #26
  br i1 %33, label %34, label %42

34:                                               ; preds = %31
  call void @llvm.lifetime.start.p0(i64 16, ptr nonnull %6) #26
  %35 = call noundef ptr @_ZNSt3__110shared_ptrIK16DNSRecordContentEC1B7v160006I20CDNSKEYRecordContentvEERKNS0_IT_EE(ptr noundef nonnull align 8 dereferenceable(16) %6, ptr noundef nonnull align 8 dereferenceable(16) @_ZN13PacketHandler22s_deleteCDNSKEYContentE) #26
  call void @_ZN9DNSRecord10setContentEONSt3__110shared_ptrIK16DNSRecordContentEE(ptr noundef nonnull align 8 dereferenceable(51) %25, ptr noundef nonnull align 8 dereferenceable(16) %6)
  %36 = call noundef ptr @_ZNSt3__110shared_ptrIK16DNSRecordContentED1B7v160006Ev(ptr noundef nonnull align 8 dereferenceable(16) %6) #26
  call void @llvm.lifetime.end.p0(i64 16, ptr nonnull %6) #26
  %37 = call noundef ptr @_ZNKSt3__110unique_ptrI9DNSPacketNS_14default_deleteIS1_EEEptB7v160006Ev(ptr noundef nonnull align 8 dereferenceable(8) %2) #26
  invoke void @_ZN9DNSPacket9addRecordEO13DNSZoneRecord(ptr noundef nonnull align 8 dereferenceable(648) %37, ptr noundef nonnull align 8 dereferenceable(104) %5)
          to label %128 unwind label %40

38:                                               ; preds = %22
  %39 = landingpad { ptr, i32 }
          cleanup
  br label %134

40:                                               ; preds = %34, %24
  %41 = landingpad { ptr, i32 }
          cleanup
  br label %131

42:                                               ; preds = %31
  call void @llvm.lifetime.start.p0(i64 24, ptr nonnull %7) #26
  invoke void @_ZN12DNSSECKeeper14getEntryPointsERK7DNSName(ptr nonnull sret(%"class.std::__1::vector.102") align 8 %7, ptr noundef nonnull align 8 dereferenceable(25) %16, ptr noundef nonnull align 8 dereferenceable(24) %17)
          to label %43 unwind label %52

43:                                               ; preds = %42
  call void @llvm.lifetime.start.p0(i64 8, ptr nonnull %8) #26
  %44 = call i64 @_ZNSt3__16vectorINS_4pairI16DNSSECPrivateKeyN12DNSSECKeeper11KeyMetaDataEEENS_9allocatorIS5_EEE5beginB7v160006Ev(ptr noundef nonnull align 8 dereferenceable(24) %7) #26
  %45 = inttoptr i64 %44 to ptr
  store ptr %45, ptr %8, align 8
  call void @llvm.lifetime.start.p0(i64 8, ptr nonnull %9) #26
  %46 = call i64 @_ZNSt3__16vectorINS_4pairI16DNSSECPrivateKeyN12DNSSECKeeper11KeyMetaDataEEENS_9allocatorIS5_EEE3endB7v160006Ev(ptr noundef nonnull align 8 dereferenceable(24) %7) #26
  %47 = inttoptr i64 %46 to ptr
  store ptr %47, ptr %9, align 8
  %48 = call noundef zeroext i1 @_ZNSt3__1neB7v160006IPNS_4pairI16DNSSECPrivateKeyN12DNSSECKeeper11KeyMetaDataEEEEEbRKNS_11__wrap_iterIT_EESB_(ptr noundef nonnull align 8 dereferenceable(8) %8, ptr noundef nonnull align 8 dereferenceable(8) %9) #26
  br i1 %48, label %54, label %49

49:                                               ; preds = %72, %43
  %50 = phi i1 [ false, %43 ], [ %73, %72 ]
  call void @llvm.lifetime.end.p0(i64 8, ptr nonnull %9) #26
  call void @llvm.lifetime.end.p0(i64 8, ptr nonnull %8) #26
  %51 = invoke noundef nonnull align 8 dereferenceable(168) ptr @_Z3argv()
          to label %87 unwind label %109

52:                                               ; preds = %42
  %53 = landingpad { ptr, i32 }
          cleanup
  br label %126

54:                                               ; preds = %43, %72
  %55 = phi i1 [ %73, %72 ], [ false, %43 ]
  %56 = call noundef nonnull align 8 dereferenceable(104) ptr @_ZNKSt3__111__wrap_iterIPNS_4pairI16DNSSECPrivateKeyN12DNSSECKeeper11KeyMetaDataEEEEdeB7v160006Ev(ptr noundef nonnull align 8 dereferenceable(8) %8) #26
  %57 = getelementptr inbounds %"struct.std::__1::pair.103", ptr %56, i64 0, i32 1, i32 6
  %58 = load i8, ptr %57, align 1, !tbaa !45, !range !57, !noundef !58
  %59 = icmp eq i8 %58, 0
  br i1 %59, label %72, label %60

60:                                               ; preds = %54
  call void @llvm.lifetime.start.p0(i64 16, ptr nonnull %10) #26
  call void @llvm.lifetime.start.p0(i64 16, ptr nonnull %11) #26
  %61 = invoke noundef nonnull align 8 dereferenceable(40) ptr @_ZNK16DNSSECPrivateKey9getDNSKEYEv(ptr noundef nonnull align 8 dereferenceable(59) %56)
          to label %62 unwind label %76

62:                                               ; preds = %60
  invoke void @_ZNSt3__111make_sharedB7v160006I19DNSKEYRecordContentJRKS1_EvEENS_10shared_ptrIT_EEDpOT0_(ptr nonnull sret(%"class.std::__1::shared_ptr.112") align 8 %11, ptr noundef nonnull align 8 dereferenceable(40) %61)
          to label %63 unwind label %76

63:                                               ; preds = %62
  %64 = call noundef ptr @_ZNSt3__110shared_ptrIK16DNSRecordContentEC1B7v160006I19DNSKEYRecordContentvEEONS0_IT_EE(ptr noundef nonnull align 8 dereferenceable(16) %10, ptr noundef nonnull align 8 dereferenceable(16) %11) #26
  call void @_ZN9DNSRecord10setContentEONSt3__110shared_ptrIK16DNSRecordContentEE(ptr noundef nonnull align 8 dereferenceable(51) %25, ptr noundef nonnull align 8 dereferenceable(16) %10)
  %65 = call noundef ptr @_ZNSt3__110shared_ptrIK16DNSRecordContentED1B7v160006Ev(ptr noundef nonnull align 8 dereferenceable(16) %10) #26
  %66 = call noundef ptr @_ZNSt3__110shared_ptrI19DNSKEYRecordContentED1B7v160006Ev(ptr noundef nonnull align 8 dereferenceable(16) %11) #26
  call void @llvm.lifetime.end.p0(i64 16, ptr nonnull %11) #26
  call void @llvm.lifetime.end.p0(i64 16, ptr nonnull %10) #26
  %67 = call noundef ptr @_ZNKSt3__110unique_ptrI9DNSPacketNS_14default_deleteIS1_EEEptB7v160006Ev(ptr noundef nonnull align 8 dereferenceable(8) %2) #26
  call void @llvm.lifetime.start.p0(i64 104, ptr nonnull %12) #26
  %68 = invoke noundef ptr @_ZN13DNSZoneRecordC1ERKS_(ptr noundef nonnull align 8 dereferenceable(104) %12, ptr noundef nonnull align 8 dereferenceable(104) %5)
          to label %69 unwind label %78

69:                                               ; preds = %63
  invoke void @_ZN9DNSPacket9addRecordEO13DNSZoneRecord(ptr noundef nonnull align 8 dereferenceable(648) %67, ptr noundef nonnull align 8 dereferenceable(104) %12)
          to label %70 unwind label %80

70:                                               ; preds = %69
  %71 = call noundef ptr @_ZN13DNSZoneRecordD1Ev(ptr noundef nonnull align 8 dereferenceable(104) %12) #26
  call void @llvm.lifetime.end.p0(i64 104, ptr nonnull %12) #26
  br label %72

72:                                               ; preds = %54, %70
  %73 = phi i1 [ true, %70 ], [ %55, %54 ]
  %74 = call noundef nonnull align 8 dereferenceable(8) ptr @_ZNSt3__111__wrap_iterIPNS_4pairI16DNSSECPrivateKeyN12DNSSECKeeper11KeyMetaDataEEEEppB7v160006Ev(ptr noundef nonnull align 8 dereferenceable(8) %8) #26
  %75 = call noundef zeroext i1 @_ZNSt3__1neB7v160006IPNS_4pairI16DNSSECPrivateKeyN12DNSSECKeeper11KeyMetaDataEEEEEbRKNS_11__wrap_iterIT_EESB_(ptr noundef nonnull align 8 dereferenceable(8) %8, ptr noundef nonnull align 8 dereferenceable(8) %9) #26
  br i1 %75, label %54, label %49, !llvm.loop !59

76:                                               ; preds = %62, %60
  %77 = landingpad { ptr, i32 }
          cleanup
  call void @llvm.lifetime.end.p0(i64 16, ptr nonnull %11) #26
  call void @llvm.lifetime.end.p0(i64 16, ptr nonnull %10) #26
  br label %85

78:                                               ; preds = %63
  %79 = landingpad { ptr, i32 }
          cleanup
  br label %83

80:                                               ; preds = %69
  %81 = landingpad { ptr, i32 }
          cleanup
  %82 = call noundef ptr @_ZN13DNSZoneRecordD1Ev(ptr noundef nonnull align 8 dereferenceable(104) %12) #26
  br label %83

83:                                               ; preds = %80, %78
  %84 = phi { ptr, i32 } [ %81, %80 ], [ %79, %78 ]
  call void @llvm.lifetime.end.p0(i64 104, ptr nonnull %12) #26
  br label %85

85:                                               ; preds = %83, %76
  %86 = phi { ptr, i32 } [ %84, %83 ], [ %77, %76 ]
  call void @llvm.lifetime.end.p0(i64 8, ptr nonnull %9) #26
  call void @llvm.lifetime.end.p0(i64 8, ptr nonnull %8) #26
  br label %123

87:                                               ; preds = %49
  call void @llvm.lifetime.start.p0(i64 24, ptr nonnull %13) #26
  %88 = invoke noundef ptr @_ZNSt3__112basic_stringIcNS_11char_traitsIcEENS_9allocatorIcEEEC1B7v160006IDnEEPKc(ptr noundef nonnull align 8 dereferenceable(24) %13, ptr noundef nonnull @.str.13)
          to label %89 unwind label %111

89:                                               ; preds = %87
  %90 = invoke noundef zeroext i1 @_ZN7ArgvMap6mustDoERKNSt3__112basic_stringIcNS0_11char_traitsIcEENS0_9allocatorIcEEEE(ptr noundef nonnull align 8 dereferenceable(168) %51, ptr noundef nonnull align 8 dereferenceable(24) %13)
          to label %91 unwind label %113

91:                                               ; preds = %89
  %92 = call noundef ptr @_ZNSt3__112basic_stringIcNS_11char_traitsIcEENS_9allocatorIcEEED1Ev(ptr noundef nonnull align 8 dereferenceable(24) %13) #26
  call void @llvm.lifetime.end.p0(i64 24, ptr nonnull %13) #26
  br i1 %90, label %93, label %120

93:                                               ; preds = %91
  %94 = getelementptr inbounds %class.PacketHandler, ptr %0, i64 0, i32 9
  call void @llvm.lifetime.start.p0(i64 2, ptr nonnull %14) #26
  %95 = invoke noundef ptr @_ZN5QTypeC1Et(ptr noundef nonnull align 2 dereferenceable(2) %14, i16 noundef zeroext 60)
          to label %96 unwind label %118

96:                                               ; preds = %93
  %97 = getelementptr inbounds %class.PacketHandler, ptr %0, i64 0, i32 5, i32 10
  %98 = load i32, ptr %97, align 8, !tbaa !61
  invoke void @_ZN12UeberBackend6lookupERK5QTypeRK7DNSNameiP9DNSPacket(ptr noundef nonnull align 8 dereferenceable(165) %94, ptr noundef nonnull align 2 dereferenceable(2) %14, ptr noundef nonnull align 8 dereferenceable(24) %17, i32 noundef %98, ptr noundef nonnull %1)
          to label %99 unwind label %118

99:                                               ; preds = %96
  call void @llvm.lifetime.end.p0(i64 2, ptr nonnull %14) #26
  br label %100

100:                                              ; preds = %104, %99
  %101 = phi i1 [ %50, %99 ], [ true, %104 ]
  %102 = invoke noundef zeroext i1 @_ZN12UeberBackend3getER13DNSZoneRecord(ptr noundef nonnull align 8 dereferenceable(165) %94, ptr noundef nonnull align 8 dereferenceable(104) %5)
          to label %103 unwind label %107

103:                                              ; preds = %100
  br i1 %102, label %104, label %120

104:                                              ; preds = %103
  %105 = load i32, ptr %27, align 4, !tbaa !42
  store i32 %105, ptr %29, align 4, !tbaa !43
  %106 = call noundef ptr @_ZNKSt3__110unique_ptrI9DNSPacketNS_14default_deleteIS1_EEEptB7v160006Ev(ptr noundef nonnull align 8 dereferenceable(8) %2) #26
  invoke void @_ZN9DNSPacket9addRecordEO13DNSZoneRecord(ptr noundef nonnull align 8 dereferenceable(648) %106, ptr noundef nonnull align 8 dereferenceable(104) %5)
          to label %100 unwind label %107, !llvm.loop !62

107:                                              ; preds = %100, %104
  %108 = landingpad { ptr, i32 }
          cleanup
  br label %123

109:                                              ; preds = %49
  %110 = landingpad { ptr, i32 }
          cleanup
  br label %123

111:                                              ; preds = %87
  %112 = landingpad { ptr, i32 }
          cleanup
  br label %116

113:                                              ; preds = %89
  %114 = landingpad { ptr, i32 }
          cleanup
  %115 = call noundef ptr @_ZNSt3__112basic_stringIcNS_11char_traitsIcEENS_9allocatorIcEEED1Ev(ptr noundef nonnull align 8 dereferenceable(24) %13) #26
  br label %116

116:                                              ; preds = %113, %111
  %117 = phi { ptr, i32 } [ %114, %113 ], [ %112, %111 ]
  call void @llvm.lifetime.end.p0(i64 24, ptr nonnull %13) #26
  br label %123

118:                                              ; preds = %96, %93
  %119 = landingpad { ptr, i32 }
          cleanup
  call void @llvm.lifetime.end.p0(i64 2, ptr nonnull %14) #26
  br label %123

120:                                              ; preds = %103, %91
  %121 = phi i1 [ %50, %91 ], [ %101, %103 ]
  %122 = call noundef ptr @_ZNSt3__16vectorINS_4pairI16DNSSECPrivateKeyN12DNSSECKeeper11KeyMetaDataEEENS_9allocatorIS5_EEED1B7v160006Ev(ptr noundef nonnull align 8 dereferenceable(24) %7) #26
  call void @llvm.lifetime.end.p0(i64 24, ptr nonnull %7) #26
  br label %128

123:                                              ; preds = %107, %109, %118, %116, %85
  %124 = phi { ptr, i32 } [ %86, %85 ], [ %119, %118 ], [ %117, %116 ], [ %108, %107 ], [ %110, %109 ]
  %125 = call noundef ptr @_ZNSt3__16vectorINS_4pairI16DNSSECPrivateKeyN12DNSSECKeeper11KeyMetaDataEEENS_9allocatorIS5_EEED1B7v160006Ev(ptr noundef nonnull align 8 dereferenceable(24) %7) #26
  br label %126

126:                                              ; preds = %123, %52
  %127 = phi { ptr, i32 } [ %124, %123 ], [ %53, %52 ]
  call void @llvm.lifetime.end.p0(i64 24, ptr nonnull %7) #26
  br label %131

128:                                              ; preds = %34, %120
  %129 = phi i1 [ %121, %120 ], [ true, %34 ]
  %130 = call noundef ptr @_ZN13DNSZoneRecordD1Ev(ptr noundef nonnull align 8 dereferenceable(104) %5) #26
  call void @llvm.lifetime.end.p0(i64 104, ptr nonnull %5) #26
  br label %136

131:                                              ; preds = %126, %40
  %132 = phi { ptr, i32 } [ %41, %40 ], [ %127, %126 ]
  %133 = call noundef ptr @_ZN13DNSZoneRecordD1Ev(ptr noundef nonnull align 8 dereferenceable(104) %5) #26
  br label %134

134:                                              ; preds = %131, %38
  %135 = phi { ptr, i32 } [ %132, %131 ], [ %39, %38 ]
  call void @llvm.lifetime.end.p0(i64 104, ptr nonnull %5) #26
  br label %139

136:                                              ; preds = %18, %128
  %137 = phi i1 [ %129, %128 ], [ false, %18 ]
  %138 = call noundef ptr @_ZNSt3__112basic_stringIcNS_11char_traitsIcEENS_9allocatorIcEEED1Ev(ptr noundef nonnull align 8 dereferenceable(24) %4) #26
  call void @llvm.lifetime.end.p0(i64 24, ptr nonnull %4) #26
  ret i1 %137

139:                                              ; preds = %134, %20
  %140 = phi { ptr, i32 } [ %135, %134 ], [ %21, %20 ]
  %141 = call noundef ptr @_ZNSt3__112basic_stringIcNS_11char_traitsIcEENS_9allocatorIcEEED1Ev(ptr noundef nonnull align 8 dereferenceable(24) %4) #26
  call void @llvm.lifetime.end.p0(i64 24, ptr nonnull %4) #26
  resume { ptr, i32 } %140
}

; Function Attrs: noinline nounwind ssp uwtable(sync)
define linkonce_odr hidden noundef ptr @_ZNSt3__112basic_stringIcNS_11char_traitsIcEENS_9allocatorIcEEEC1B7v160006Ev(ptr noundef nonnull returned align 8 dereferenceable(24) %0) unnamed_addr #2 align 2 {
  %2 = tail call noundef ptr @_ZNSt3__112basic_stringIcNS_11char_traitsIcEENS_9allocatorIcEEEC2B7v160006Ev(ptr noundef nonnull align 8 dereferenceable(24) %0) #26
  ret ptr %0
}

declare void @_ZN12DNSSECKeeper17getPublishCDNSKEYERK7DNSNameRNSt3__112basic_stringIcNS3_11char_traitsIcEENS3_9allocatorIcEEEE(ptr noundef nonnull align 8 dereferenceable(25), ptr noundef nonnull align 8 dereferenceable(24), ptr noundef nonnull align 8 dereferenceable(24)) local_unnamed_addr #5

; Function Attrs: noinline ssp uwtable(sync)
define linkonce_odr noundef ptr @_ZN13DNSZoneRecordC1Ev(ptr noundef nonnull returned align 8 dereferenceable(104) %0) unnamed_addr #0 align 2 {
  %2 = tail call noundef ptr @_ZN13DNSZoneRecordC2Ev(ptr noundef nonnull align 8 dereferenceable(104) %0)
  ret ptr %0
}

; Function Attrs: mustprogress noinline ssp uwtable(sync)
define linkonce_odr noundef nonnull align 8 dereferenceable(24) ptr @_ZN7DNSNameaSERKS_(ptr noundef nonnull align 8 dereferenceable(24) %0, ptr noundef nonnull align 8 dereferenceable(24) %1) local_unnamed_addr #4 align 2 {
  %3 = icmp eq ptr %0, %1
  br i1 %3, label %6, label %4

4:                                                ; preds = %2
  %5 = tail call noundef nonnull align 8 dereferenceable(24) ptr @_ZN5boost9container12basic_stringIcNSt3__111char_traitsIcEEvEaSERKS5_(ptr noundef nonnull align 8 dereferenceable(24) %0, ptr noundef nonnull align 8 dereferenceable(24) %1)
  br label %6

6:                                                ; preds = %4, %2
  ret ptr %0
}

; Function Attrs: mustprogress noinline nounwind ssp uwtable(sync)
define linkonce_odr hidden noundef zeroext i1 @_ZNSt3__1eqB7v160006IcNS_11char_traitsIcEENS_9allocatorIcEEEEbRKNS_12basic_stringIT_T0_T1_EEPKS6_(ptr noundef nonnull align 8 dereferenceable(24) %0, ptr noundef %1) local_unnamed_addr #6 personality ptr @__gxx_personality_v0 {
  %3 = icmp ne ptr %1, null
  tail call void @llvm.assume(i1 %3)
  %4 = tail call noundef i64 @_ZNSt3__111char_traitsIcE6lengthEPKc(ptr noundef nonnull %1) #26
  %5 = tail call noundef i64 @_ZNKSt3__112basic_stringIcNS_11char_traitsIcEENS_9allocatorIcEEE4sizeB7v160006Ev(ptr noundef nonnull align 8 dereferenceable(24) %0) #26
  %6 = icmp eq i64 %4, %5
  br i1 %6, label %7, label %11

7:                                                ; preds = %2
  %8 = invoke noundef i32 @_ZNKSt3__112basic_stringIcNS_11char_traitsIcEENS_9allocatorIcEEE7compareEmmPKcm(ptr noundef nonnull align 8 dereferenceable(24) %0, i64 noundef 0, i64 noundef -1, ptr noundef nonnull %1, i64 noundef %4)
          to label %9 unwind label %13

9:                                                ; preds = %7
  %10 = icmp eq i32 %8, 0
  br label %11

11:                                               ; preds = %2, %9
  %12 = phi i1 [ %10, %9 ], [ false, %2 ]
  ret i1 %12

13:                                               ; preds = %7
  %14 = landingpad { ptr, i32 }
          catch ptr null
  %15 = extractvalue { ptr, i32 } %14, 0
  tail call void @__clang_call_terminate(ptr %15) #29
  unreachable
}

; Function Attrs: mustprogress noinline nounwind ssp uwtable(sync)
define linkonce_odr void @_ZN9DNSRecord10setContentEONSt3__110shared_ptrIK16DNSRecordContentEE(ptr noundef nonnull align 8 dereferenceable(51) %0, ptr noundef nonnull align 8 dereferenceable(16) %1) local_unnamed_addr #6 align 2 {
  %3 = getelementptr inbounds %struct.DNSRecord, ptr %0, i64 0, i32 1
  %4 = tail call noundef nonnull align 8 dereferenceable(16) ptr @_ZNSt3__110shared_ptrIK16DNSRecordContentEaSB7v160006EOS3_(ptr noundef nonnull align 8 dereferenceable(16) %3, ptr noundef nonnull align 8 dereferenceable(16) %1) #26
  ret void
}

; Function Attrs: noinline nounwind ssp uwtable(sync)
define linkonce_odr noundef ptr @_ZNSt3__110shared_ptrIK16DNSRecordContentEC1B7v160006I20CDNSKEYRecordContentvEERKNS0_IT_EE(ptr noundef nonnull returned align 8 dereferenceable(16) %0, ptr noundef nonnull align 8 dereferenceable(16) %1) unnamed_addr #2 align 2 {
  %3 = tail call noundef ptr @_ZNSt3__110shared_ptrIK16DNSRecordContentEC2B7v160006I20CDNSKEYRecordContentvEERKNS0_IT_EE(ptr noundef nonnull align 8 dereferenceable(16) %0, ptr noundef nonnull align 8 dereferenceable(16) %1) #26
  ret ptr %0
}

; Function Attrs: noinline nounwind ssp uwtable(sync)
define linkonce_odr hidden noundef ptr @_ZNSt3__110shared_ptrIK16DNSRecordContentED1B7v160006Ev(ptr noundef nonnull returned align 8 dereferenceable(16) %0) unnamed_addr #2 align 2 {
  %2 = tail call noundef ptr @_ZNSt3__110shared_ptrIK16DNSRecordContentED2B7v160006Ev(ptr noundef nonnull align 8 dereferenceable(16) %0) #26
  ret ptr %0
}

; Function Attrs: mustprogress noinline nounwind ssp uwtable(sync)
define linkonce_odr hidden noundef ptr @_ZNKSt3__110unique_ptrI9DNSPacketNS_14default_deleteIS1_EEEptB7v160006Ev(ptr noundef nonnull align 8 dereferenceable(8) %0) local_unnamed_addr #6 align 2 {
  %2 = tail call noundef nonnull align 8 dereferenceable(8) ptr @_ZNKSt3__117__compressed_pairIP9DNSPacketNS_14default_deleteIS1_EEE5firstB7v160006Ev(ptr noundef nonnull align 8 dereferenceable(8) %0) #26
  %3 = load ptr, ptr %2, align 8, !tbaa !36
  ret ptr %3
}

declare void @_ZN9DNSPacket9addRecordEO13DNSZoneRecord(ptr noundef nonnull align 8 dereferenceable(648), ptr noundef nonnull align 8 dereferenceable(104)) local_unnamed_addr #5

declare void @_ZN12DNSSECKeeper14getEntryPointsERK7DNSName(ptr sret(%"class.std::__1::vector.102") align 8, ptr noundef nonnull align 8 dereferenceable(25), ptr noundef nonnull align 8 dereferenceable(24)) local_unnamed_addr #5

; Function Attrs: mustprogress noinline nounwind ssp uwtable(sync)
define linkonce_odr hidden i64 @_ZNSt3__16vectorINS_4pairI16DNSSECPrivateKeyN12DNSSECKeeper11KeyMetaDataEEENS_9allocatorIS5_EEE5beginB7v160006Ev(ptr noundef nonnull align 8 dereferenceable(24) %0) local_unnamed_addr #6 align 2 {
  %2 = load ptr, ptr %0, align 8, !tbaa !64
  %3 = tail call i64 @_ZNSt3__16vectorINS_4pairI16DNSSECPrivateKeyN12DNSSECKeeper11KeyMetaDataEEENS_9allocatorIS5_EEE11__make_iterB7v160006EPS5_(ptr noundef nonnull align 8 dereferenceable(24) %0, ptr noundef %2) #26
  ret i64 %3
}

; Function Attrs: mustprogress noinline nounwind ssp uwtable(sync)
define linkonce_odr hidden i64 @_ZNSt3__16vectorINS_4pairI16DNSSECPrivateKeyN12DNSSECKeeper11KeyMetaDataEEENS_9allocatorIS5_EEE3endB7v160006Ev(ptr noundef nonnull align 8 dereferenceable(24) %0) local_unnamed_addr #6 align 2 {
  %2 = getelementptr inbounds %"class.std::__1::vector.102", ptr %0, i64 0, i32 1
  %3 = load ptr, ptr %2, align 8, !tbaa !68
  %4 = tail call i64 @_ZNSt3__16vectorINS_4pairI16DNSSECPrivateKeyN12DNSSECKeeper11KeyMetaDataEEENS_9allocatorIS5_EEE11__make_iterB7v160006EPS5_(ptr noundef nonnull align 8 dereferenceable(24) %0, ptr noundef %3) #26
  ret i64 %4
}

; Function Attrs: mustprogress noinline nounwind ssp uwtable(sync)
define linkonce_odr hidden noundef zeroext i1 @_ZNSt3__1neB7v160006IPNS_4pairI16DNSSECPrivateKeyN12DNSSECKeeper11KeyMetaDataEEEEEbRKNS_11__wrap_iterIT_EESB_(ptr noundef nonnull align 8 dereferenceable(8) %0, ptr noundef nonnull align 8 dereferenceable(8) %1) local_unnamed_addr #6 {
  %3 = tail call noundef zeroext i1 @_ZNSt3__1eqB7v160006IPNS_4pairI16DNSSECPrivateKeyN12DNSSECKeeper11KeyMetaDataEEEEEbRKNS_11__wrap_iterIT_EESB_(ptr noundef nonnull align 8 dereferenceable(8) %0, ptr noundef nonnull align 8 dereferenceable(8) %1) #26
  %4 = xor i1 %3, true
  ret i1 %4
}

; Function Attrs: mustprogress noinline nounwind ssp uwtable(sync)
define linkonce_odr hidden noundef nonnull align 8 dereferenceable(104) ptr @_ZNKSt3__111__wrap_iterIPNS_4pairI16DNSSECPrivateKeyN12DNSSECKeeper11KeyMetaDataEEEEdeB7v160006Ev(ptr noundef nonnull align 8 dereferenceable(8) %0) local_unnamed_addr #6 align 2 {
  %2 = load ptr, ptr %0, align 8, !tbaa !69
  ret ptr %2
}

; Function Attrs: mustprogress noinline ssp uwtable(sync)
define linkonce_odr hidden void @_ZNSt3__111make_sharedB7v160006I19DNSKEYRecordContentJRKS1_EvEENS_10shared_ptrIT_EEDpOT0_(ptr noalias sret(%"class.std::__1::shared_ptr.112") align 8 %0, ptr noundef nonnull align 8 dereferenceable(40) %1) local_unnamed_addr #4 {
  %3 = alloca %"class.std::__1::allocator.540", align 1
  call void @llvm.lifetime.start.p0(i64 1, ptr nonnull %3) #26
  %4 = call noundef ptr @_ZNSt3__19allocatorI19DNSKEYRecordContentEC1B7v160006Ev(ptr noundef nonnull align 1 dereferenceable(1) %3) #26
  call void @_ZNSt3__115allocate_sharedB7v160006I19DNSKEYRecordContentNS_9allocatorIS1_EEJRKS1_EvEENS_10shared_ptrIT_EERKT0_DpOT1_(ptr sret(%"class.std::__1::shared_ptr.112") align 8 %0, ptr noundef nonnull align 1 dereferenceable(1) %3, ptr noundef nonnull align 8 dereferenceable(40) %1)
  call void @llvm.lifetime.end.p0(i64 1, ptr nonnull %3) #26
  ret void
}

declare noundef nonnull align 8 dereferenceable(40) ptr @_ZNK16DNSSECPrivateKey9getDNSKEYEv(ptr noundef nonnull align 8 dereferenceable(59)) local_unnamed_addr #5

; Function Attrs: noinline nounwind ssp uwtable(sync)
define linkonce_odr noundef ptr @_ZNSt3__110shared_ptrIK16DNSRecordContentEC1B7v160006I19DNSKEYRecordContentvEEONS0_IT_EE(ptr noundef nonnull returned align 8 dereferenceable(16) %0, ptr noundef nonnull align 8 dereferenceable(16) %1) unnamed_addr #2 align 2 {
  %3 = tail call noundef ptr @_ZNSt3__110shared_ptrIK16DNSRecordContentEC2B7v160006I19DNSKEYRecordContentvEEONS0_IT_EE(ptr noundef nonnull align 8 dereferenceable(16) %0, ptr noundef nonnull align 8 dereferenceable(16) %1) #26
  ret ptr %0
}

; Function Attrs: noinline nounwind ssp uwtable(sync)
define linkonce_odr hidden noundef ptr @_ZNSt3__110shared_ptrI19DNSKEYRecordContentED1B7v160006Ev(ptr noundef nonnull returned align 8 dereferenceable(16) %0) unnamed_addr #2 align 2 {
  %2 = tail call noundef ptr @_ZNSt3__110shared_ptrI19DNSKEYRecordContentED2B7v160006Ev(ptr noundef nonnull align 8 dereferenceable(16) %0) #26
  ret ptr %0
}

; Function Attrs: noinline ssp uwtable(sync)
define linkonce_odr noundef ptr @_ZN13DNSZoneRecordC1ERKS_(ptr noundef nonnull returned align 8 dereferenceable(104) %0, ptr noundef nonnull align 8 dereferenceable(104) %1) unnamed_addr #0 align 2 {
  %3 = tail call noundef ptr @_ZN13DNSZoneRecordC2ERKS_(ptr noundef nonnull align 8 dereferenceable(104) %0, ptr noundef nonnull align 8 dereferenceable(104) %1)
  ret ptr %0
}

; Function Attrs: noinline nounwind ssp uwtable(sync)
define linkonce_odr noundef ptr @_ZN13DNSZoneRecordD1Ev(ptr noundef nonnull returned align 8 dereferenceable(104) %0) unnamed_addr #2 align 2 {
  %2 = tail call noundef ptr @_ZN13DNSZoneRecordD2Ev(ptr noundef nonnull align 8 dereferenceable(104) %0) #26
  ret ptr %0
}

; Function Attrs: mustprogress noinline nounwind ssp uwtable(sync)
define linkonce_odr hidden noundef nonnull align 8 dereferenceable(8) ptr @_ZNSt3__111__wrap_iterIPNS_4pairI16DNSSECPrivateKeyN12DNSSECKeeper11KeyMetaDataEEEEppB7v160006Ev(ptr noundef nonnull align 8 dereferenceable(8) %0) local_unnamed_addr #6 align 2 {
  %2 = load ptr, ptr %0, align 8, !tbaa !69
  %3 = getelementptr inbounds %"struct.std::__1::pair.103", ptr %2, i64 1
  store ptr %3, ptr %0, align 8, !tbaa !69
  ret ptr %0
}

declare void @_ZN12UeberBackend6lookupERK5QTypeRK7DNSNameiP9DNSPacket(ptr noundef nonnull align 8 dereferenceable(165), ptr noundef nonnull align 2 dereferenceable(2), ptr noundef nonnull align 8 dereferenceable(24), i32 noundef, ptr noundef) local_unnamed_addr #5

; Function Attrs: noinline ssp uwtable(sync)
define linkonce_odr noundef ptr @_ZN5QTypeC1Et(ptr noundef nonnull returned align 2 dereferenceable(2) %0, i16 noundef zeroext %1) unnamed_addr #0 align 2 {
  %3 = tail call noundef ptr @_ZN5QTypeC2Et(ptr noundef nonnull align 2 dereferenceable(2) %0, i16 noundef zeroext %1)
  ret ptr %0
}

declare noundef zeroext i1 @_ZN12UeberBackend3getER13DNSZoneRecord(ptr noundef nonnull align 8 dereferenceable(165), ptr noundef nonnull align 8 dereferenceable(104)) local_unnamed_addr #5

; Function Attrs: noinline nounwind ssp uwtable(sync)
define linkonce_odr hidden noundef ptr @_ZNSt3__16vectorINS_4pairI16DNSSECPrivateKeyN12DNSSECKeeper11KeyMetaDataEEENS_9allocatorIS5_EEED1B7v160006Ev(ptr noundef nonnull returned align 8 dereferenceable(24) %0) unnamed_addr #2 align 2 {
  %2 = tail call noundef ptr @_ZNSt3__16vectorINS_4pairI16DNSSECPrivateKeyN12DNSSECKeeper11KeyMetaDataEEENS_9allocatorIS5_EEED2B7v160006Ev(ptr noundef nonnull align 8 dereferenceable(24) %0) #26
  ret ptr %0
}

; Function Attrs: mustprogress noinline ssp uwtable(sync)
define noundef zeroext i1 @_ZN13PacketHandler9addDNSKEYER9DNSPacketRNSt3__110unique_ptrIS0_NS2_14default_deleteIS0_EEEE(ptr noundef nonnull align 8 dereferenceable(344) %0, ptr noundef nonnull align 8 dereferenceable(648) %1, ptr noundef nonnull align 8 dereferenceable(8) %2) local_unnamed_addr #4 align 2 personality ptr @__gxx_personality_v0 {
  %4 = alloca %struct.DNSZoneRecord, align 8
  %5 = alloca %"class.std::__1::vector.102", align 8
  %6 = alloca %"class.std::__1::__wrap_iter.111", align 8
  %7 = alloca %"class.std::__1::__wrap_iter.111", align 8
  %8 = alloca %"class.std::__1::shared_ptr.53", align 8
  %9 = alloca %"class.std::__1::shared_ptr.112", align 8
  %10 = alloca %"class.std::__1::basic_string", align 8
  %11 = alloca %class.QType, align 2
  call void @llvm.lifetime.start.p0(i64 104, ptr nonnull %4) #26
  %12 = call noundef ptr @_ZN13DNSZoneRecordC1Ev(ptr noundef nonnull align 8 dereferenceable(104) %4)
  call void @llvm.lifetime.start.p0(i64 24, ptr nonnull %5) #26
  %13 = getelementptr inbounds %class.PacketHandler, ptr %0, i64 0, i32 10
  %14 = getelementptr inbounds %class.DNSPacket, ptr %1, i64 0, i32 2
  invoke void @_ZN12DNSSECKeeper7getKeysERK7DNSNameb(ptr nonnull sret(%"class.std::__1::vector.102") align 8 %5, ptr noundef nonnull align 8 dereferenceable(25) %13, ptr noundef nonnull align 8 dereferenceable(24) %14, i1 noundef zeroext true)
          to label %15 unwind label %30

15:                                               ; preds = %3
  call void @llvm.lifetime.start.p0(i64 8, ptr nonnull %6) #26
  %16 = call i64 @_ZNSt3__16vectorINS_4pairI16DNSSECPrivateKeyN12DNSSECKeeper11KeyMetaDataEEENS_9allocatorIS5_EEE5beginB7v160006Ev(ptr noundef nonnull align 8 dereferenceable(24) %5) #26
  %17 = inttoptr i64 %16 to ptr
  store ptr %17, ptr %6, align 8
  call void @llvm.lifetime.start.p0(i64 8, ptr nonnull %7) #26
  %18 = call i64 @_ZNSt3__16vectorINS_4pairI16DNSSECPrivateKeyN12DNSSECKeeper11KeyMetaDataEEENS_9allocatorIS5_EEE3endB7v160006Ev(ptr noundef nonnull align 8 dereferenceable(24) %5) #26
  %19 = inttoptr i64 %18 to ptr
  store ptr %19, ptr %7, align 8
  %20 = call noundef zeroext i1 @_ZNSt3__1neB7v160006IPNS_4pairI16DNSSECPrivateKeyN12DNSSECKeeper11KeyMetaDataEEEEEbRKNS_11__wrap_iterIT_EESB_(ptr noundef nonnull align 8 dereferenceable(8) %6, ptr noundef nonnull align 8 dereferenceable(8) %7) #26
  br i1 %20, label %21, label %27

21:                                               ; preds = %15
  %22 = getelementptr inbounds %struct.DNSZoneRecord, ptr %4, i64 0, i32 8
  %23 = getelementptr inbounds %struct.DNSZoneRecord, ptr %4, i64 0, i32 8, i32 2
  %24 = getelementptr inbounds %class.PacketHandler, ptr %0, i64 0, i32 5, i32 8
  %25 = getelementptr inbounds %struct.DNSZoneRecord, ptr %4, i64 0, i32 8, i32 4
  %26 = getelementptr inbounds %struct.DNSZoneRecord, ptr %4, i64 0, i32 5
  br label %32

27:                                               ; preds = %49, %15
  %28 = phi i1 [ false, %15 ], [ %50, %49 ]
  call void @llvm.lifetime.end.p0(i64 8, ptr nonnull %7) #26
  call void @llvm.lifetime.end.p0(i64 8, ptr nonnull %6) #26
  %29 = invoke noundef nonnull align 8 dereferenceable(168) ptr @_Z3argv()
          to label %59 unwind label %83

30:                                               ; preds = %3
  %31 = landingpad { ptr, i32 }
          cleanup
  br label %101

32:                                               ; preds = %21, %49
  %33 = phi i1 [ false, %21 ], [ %50, %49 ]
  %34 = call noundef nonnull align 8 dereferenceable(104) ptr @_ZNKSt3__111__wrap_iterIPNS_4pairI16DNSSECPrivateKeyN12DNSSECKeeper11KeyMetaDataEEEEdeB7v160006Ev(ptr noundef nonnull align 8 dereferenceable(8) %6) #26
  %35 = getelementptr inbounds %"struct.std::__1::pair.103", ptr %34, i64 0, i32 1, i32 6
  %36 = load i8, ptr %35, align 1, !tbaa !45, !range !57, !noundef !58
  %37 = icmp eq i8 %36, 0
  br i1 %37, label %49, label %38

38:                                               ; preds = %32
  store i16 48, ptr %23, align 8, !tbaa !37
  %39 = load i32, ptr %24, align 4, !tbaa !42
  store i32 %39, ptr %25, align 4, !tbaa !43
  %40 = invoke noundef nonnull align 8 dereferenceable(24) ptr @_ZN7DNSNameaSERKS_(ptr noundef nonnull align 8 dereferenceable(24) %22, ptr noundef nonnull align 8 dereferenceable(24) %14)
          to label %41 unwind label %53

41:                                               ; preds = %38
  call void @llvm.lifetime.start.p0(i64 16, ptr nonnull %8) #26
  call void @llvm.lifetime.start.p0(i64 16, ptr nonnull %9) #26
  %42 = invoke noundef nonnull align 8 dereferenceable(40) ptr @_ZNK16DNSSECPrivateKey9getDNSKEYEv(ptr noundef nonnull align 8 dereferenceable(59) %34)
          to label %43 unwind label %55

43:                                               ; preds = %41
  invoke void @_ZNSt3__111make_sharedB7v160006I19DNSKEYRecordContentJRKS1_EvEENS_10shared_ptrIT_EEDpOT0_(ptr nonnull sret(%"class.std::__1::shared_ptr.112") align 8 %9, ptr noundef nonnull align 8 dereferenceable(40) %42)
          to label %44 unwind label %55

44:                                               ; preds = %43
  %45 = call noundef ptr @_ZNSt3__110shared_ptrIK16DNSRecordContentEC1B7v160006I19DNSKEYRecordContentvEEONS0_IT_EE(ptr noundef nonnull align 8 dereferenceable(16) %8, ptr noundef nonnull align 8 dereferenceable(16) %9) #26
  call void @_ZN9DNSRecord10setContentEONSt3__110shared_ptrIK16DNSRecordContentEE(ptr noundef nonnull align 8 dereferenceable(51) %22, ptr noundef nonnull align 8 dereferenceable(16) %8)
  %46 = call noundef ptr @_ZNSt3__110shared_ptrIK16DNSRecordContentED1B7v160006Ev(ptr noundef nonnull align 8 dereferenceable(16) %8) #26
  %47 = call noundef ptr @_ZNSt3__110shared_ptrI19DNSKEYRecordContentED1B7v160006Ev(ptr noundef nonnull align 8 dereferenceable(16) %9) #26
  call void @llvm.lifetime.end.p0(i64 16, ptr nonnull %9) #26
  call void @llvm.lifetime.end.p0(i64 16, ptr nonnull %8) #26
  store i8 1, ptr %26, align 8, !tbaa !44
  %48 = call noundef ptr @_ZNKSt3__110unique_ptrI9DNSPacketNS_14default_deleteIS1_EEEptB7v160006Ev(ptr noundef nonnull align 8 dereferenceable(8) %2) #26
  invoke void @_ZN9DNSPacket9addRecordEO13DNSZoneRecord(ptr noundef nonnull align 8 dereferenceable(648) %48, ptr noundef nonnull align 8 dereferenceable(104) %4)
          to label %49 unwind label %53

49:                                               ; preds = %44, %32
  %50 = phi i1 [ %33, %32 ], [ true, %44 ]
  %51 = call noundef nonnull align 8 dereferenceable(8) ptr @_ZNSt3__111__wrap_iterIPNS_4pairI16DNSSECPrivateKeyN12DNSSECKeeper11KeyMetaDataEEEEppB7v160006Ev(ptr noundef nonnull align 8 dereferenceable(8) %6) #26
  %52 = call noundef zeroext i1 @_ZNSt3__1neB7v160006IPNS_4pairI16DNSSECPrivateKeyN12DNSSECKeeper11KeyMetaDataEEEEEbRKNS_11__wrap_iterIT_EESB_(ptr noundef nonnull align 8 dereferenceable(8) %6, ptr noundef nonnull align 8 dereferenceable(8) %7) #26
  br i1 %52, label %32, label %27, !llvm.loop !71

53:                                               ; preds = %44, %38
  %54 = landingpad { ptr, i32 }
          cleanup
  br label %57

55:                                               ; preds = %43, %41
  %56 = landingpad { ptr, i32 }
          cleanup
  call void @llvm.lifetime.end.p0(i64 16, ptr nonnull %9) #26
  call void @llvm.lifetime.end.p0(i64 16, ptr nonnull %8) #26
  br label %57

57:                                               ; preds = %55, %53
  %58 = phi { ptr, i32 } [ %54, %53 ], [ %56, %55 ]
  call void @llvm.lifetime.end.p0(i64 8, ptr nonnull %7) #26
  call void @llvm.lifetime.end.p0(i64 8, ptr nonnull %6) #26
  br label %98

59:                                               ; preds = %27
  call void @llvm.lifetime.start.p0(i64 24, ptr nonnull %10) #26
  %60 = invoke noundef ptr @_ZNSt3__112basic_stringIcNS_11char_traitsIcEENS_9allocatorIcEEEC1B7v160006IDnEEPKc(ptr noundef nonnull align 8 dereferenceable(24) %10, ptr noundef nonnull @.str.13)
          to label %61 unwind label %85

61:                                               ; preds = %59
  %62 = invoke noundef zeroext i1 @_ZN7ArgvMap6mustDoERKNSt3__112basic_stringIcNS0_11char_traitsIcEENS0_9allocatorIcEEEE(ptr noundef nonnull align 8 dereferenceable(168) %29, ptr noundef nonnull align 8 dereferenceable(24) %10)
          to label %63 unwind label %87

63:                                               ; preds = %61
  %64 = call noundef ptr @_ZNSt3__112basic_stringIcNS_11char_traitsIcEENS_9allocatorIcEEED1Ev(ptr noundef nonnull align 8 dereferenceable(24) %10) #26
  call void @llvm.lifetime.end.p0(i64 24, ptr nonnull %10) #26
  br i1 %62, label %65, label %94

65:                                               ; preds = %63
  %66 = getelementptr inbounds %class.PacketHandler, ptr %0, i64 0, i32 9
  call void @llvm.lifetime.start.p0(i64 2, ptr nonnull %11) #26
  %67 = invoke noundef ptr @_ZN5QTypeC1Et(ptr noundef nonnull align 2 dereferenceable(2) %11, i16 noundef zeroext 48)
          to label %68 unwind label %92

68:                                               ; preds = %65
  %69 = getelementptr inbounds %class.PacketHandler, ptr %0, i64 0, i32 5, i32 10
  %70 = load i32, ptr %69, align 8, !tbaa !61
  invoke void @_ZN12UeberBackend6lookupERK5QTypeRK7DNSNameiP9DNSPacket(ptr noundef nonnull align 8 dereferenceable(165) %66, ptr noundef nonnull align 2 dereferenceable(2) %11, ptr noundef nonnull align 8 dereferenceable(24) %14, i32 noundef %70, ptr noundef nonnull %1)
          to label %71 unwind label %92

71:                                               ; preds = %68
  call void @llvm.lifetime.end.p0(i64 2, ptr nonnull %11) #26
  %72 = getelementptr inbounds %class.PacketHandler, ptr %0, i64 0, i32 5, i32 8
  %73 = getelementptr inbounds %struct.DNSZoneRecord, ptr %4, i64 0, i32 8, i32 4
  br label %74

74:                                               ; preds = %78, %71
  %75 = phi i1 [ %28, %71 ], [ true, %78 ]
  %76 = invoke noundef zeroext i1 @_ZN12UeberBackend3getER13DNSZoneRecord(ptr noundef nonnull align 8 dereferenceable(165) %66, ptr noundef nonnull align 8 dereferenceable(104) %4)
          to label %77 unwind label %81

77:                                               ; preds = %74
  br i1 %76, label %78, label %94

78:                                               ; preds = %77
  %79 = load i32, ptr %72, align 4, !tbaa !42
  store i32 %79, ptr %73, align 4, !tbaa !43
  %80 = call noundef ptr @_ZNKSt3__110unique_ptrI9DNSPacketNS_14default_deleteIS1_EEEptB7v160006Ev(ptr noundef nonnull align 8 dereferenceable(8) %2) #26
  invoke void @_ZN9DNSPacket9addRecordEO13DNSZoneRecord(ptr noundef nonnull align 8 dereferenceable(648) %80, ptr noundef nonnull align 8 dereferenceable(104) %4)
          to label %74 unwind label %81, !llvm.loop !72

81:                                               ; preds = %74, %78
  %82 = landingpad { ptr, i32 }
          cleanup
  br label %98

83:                                               ; preds = %27
  %84 = landingpad { ptr, i32 }
          cleanup
  br label %98

85:                                               ; preds = %59
  %86 = landingpad { ptr, i32 }
          cleanup
  br label %90

87:                                               ; preds = %61
  %88 = landingpad { ptr, i32 }
          cleanup
  %89 = call noundef ptr @_ZNSt3__112basic_stringIcNS_11char_traitsIcEENS_9allocatorIcEEED1Ev(ptr noundef nonnull align 8 dereferenceable(24) %10) #26
  br label %90

90:                                               ; preds = %87, %85
  %91 = phi { ptr, i32 } [ %88, %87 ], [ %86, %85 ]
  call void @llvm.lifetime.end.p0(i64 24, ptr nonnull %10) #26
  br label %98

92:                                               ; preds = %68, %65
  %93 = landingpad { ptr, i32 }
          cleanup
  call void @llvm.lifetime.end.p0(i64 2, ptr nonnull %11) #26
  br label %98

94:                                               ; preds = %77, %63
  %95 = phi i1 [ %28, %63 ], [ %75, %77 ]
  %96 = call noundef ptr @_ZNSt3__16vectorINS_4pairI16DNSSECPrivateKeyN12DNSSECKeeper11KeyMetaDataEEENS_9allocatorIS5_EEED1B7v160006Ev(ptr noundef nonnull align 8 dereferenceable(24) %5) #26
  call void @llvm.lifetime.end.p0(i64 24, ptr nonnull %5) #26
  %97 = call noundef ptr @_ZN13DNSZoneRecordD1Ev(ptr noundef nonnull align 8 dereferenceable(104) %4) #26
  call void @llvm.lifetime.end.p0(i64 104, ptr nonnull %4) #26
  ret i1 %95

98:                                               ; preds = %81, %83, %92, %90, %57
  %99 = phi { ptr, i32 } [ %58, %57 ], [ %93, %92 ], [ %91, %90 ], [ %82, %81 ], [ %84, %83 ]
  %100 = call noundef ptr @_ZNSt3__16vectorINS_4pairI16DNSSECPrivateKeyN12DNSSECKeeper11KeyMetaDataEEENS_9allocatorIS5_EEED1B7v160006Ev(ptr noundef nonnull align 8 dereferenceable(24) %5) #26
  br label %101

101:                                              ; preds = %98, %30
  %102 = phi { ptr, i32 } [ %99, %98 ], [ %31, %30 ]
  call void @llvm.lifetime.end.p0(i64 24, ptr nonnull %5) #26
  %103 = call noundef ptr @_ZN13DNSZoneRecordD1Ev(ptr noundef nonnull align 8 dereferenceable(104) %4) #26
  call void @llvm.lifetime.end.p0(i64 104, ptr nonnull %4) #26
  resume { ptr, i32 } %102
}

declare void @_ZN12DNSSECKeeper7getKeysERK7DNSNameb(ptr sret(%"class.std::__1::vector.102") align 8, ptr noundef nonnull align 8 dereferenceable(25), ptr noundef nonnull align 8 dereferenceable(24), i1 noundef zeroext) local_unnamed_addr #5

; Function Attrs: mustprogress noinline ssp uwtable(sync)
define noundef zeroext i1 @_ZN13PacketHandler6addCDSER9DNSPacketRNSt3__110unique_ptrIS0_NS2_14default_deleteIS0_EEEE(ptr noundef nonnull align 8 dereferenceable(344) %0, ptr noundef nonnull align 8 dereferenceable(648) %1, ptr noundef nonnull align 8 dereferenceable(8) %2) local_unnamed_addr #4 align 2 personality ptr @__gxx_personality_v0 {
  %4 = alloca %"class.std::__1::basic_string", align 8
  %5 = alloca %"class.std::__1::vector.90", align 8
  %6 = alloca %struct.DNSZoneRecord, align 8
  %7 = alloca %"class.std::__1::__wrap_iter.113", align 8
  %8 = alloca %"class.std::__1::__wrap_iter.113", align 8
  %9 = alloca %"class.std::__1::shared_ptr.53", align 8
  %10 = alloca %"class.std::__1::vector.102", align 8
  %11 = alloca %"class.std::__1::__wrap_iter.111", align 8
  %12 = alloca %"class.std::__1::__wrap_iter.111", align 8
  %13 = alloca %"class.std::__1::__wrap_iter.113", align 8
  %14 = alloca %"class.std::__1::__wrap_iter.113", align 8
  %15 = alloca %"class.std::__1::shared_ptr.53", align 8
  %16 = alloca %"class.std::__1::shared_ptr.114", align 8
  %17 = alloca %class.DSRecordContent, align 8
  %18 = alloca %struct.DNSZoneRecord, align 8
  %19 = alloca %"class.std::__1::basic_string", align 8
  %20 = alloca %class.QType, align 2
  call void @llvm.lifetime.start.p0(i64 24, ptr nonnull %4) #26
  %21 = call noundef ptr @_ZNSt3__112basic_stringIcNS_11char_traitsIcEENS_9allocatorIcEEEC1B7v160006Ev(ptr noundef nonnull align 8 dereferenceable(24) %4) #26
  %22 = getelementptr inbounds %class.PacketHandler, ptr %0, i64 0, i32 10
  %23 = getelementptr inbounds %class.DNSPacket, ptr %1, i64 0, i32 2
  invoke void @_ZN12DNSSECKeeper13getPublishCDSERK7DNSNameRNSt3__112basic_stringIcNS3_11char_traitsIcEENS3_9allocatorIcEEEE(ptr noundef nonnull align 8 dereferenceable(25) %22, ptr noundef nonnull align 8 dereferenceable(24) %23, ptr noundef nonnull align 8 dereferenceable(24) %4)
          to label %24 unwind label %26

24:                                               ; preds = %3
  %25 = call noundef zeroext i1 @_ZNKSt3__112basic_stringIcNS_11char_traitsIcEENS_9allocatorIcEEE5emptyB7v160006Ev(ptr noundef nonnull align 8 dereferenceable(24) %4) #26
  br i1 %25, label %176, label %28

26:                                               ; preds = %3
  %27 = landingpad { ptr, i32 }
          cleanup
  br label %179

28:                                               ; preds = %24
  call void @llvm.lifetime.start.p0(i64 24, ptr nonnull %5) #26
  %29 = call noundef ptr @_ZNSt3__16vectorINS_12basic_stringIcNS_11char_traitsIcEENS_9allocatorIcEEEENS4_IS6_EEEC1B7v160006Ev(ptr noundef nonnull align 8 dereferenceable(24) %5) #26
  invoke void @_Z9stringtokINSt3__16vectorINS0_12basic_stringIcNS0_11char_traitsIcEENS0_9allocatorIcEEEENS5_IS7_EEEEEvRT_RKS7_PKc(ptr noundef nonnull align 8 dereferenceable(24) %5, ptr noundef nonnull align 8 dereferenceable(24) %4, ptr noundef nonnull @.str.14)
          to label %30 unwind label %52

30:                                               ; preds = %28
  call void @llvm.lifetime.start.p0(i64 104, ptr nonnull %6) #26
  %31 = invoke noundef ptr @_ZN13DNSZoneRecordC1Ev(ptr noundef nonnull align 8 dereferenceable(104) %6)
          to label %32 unwind label %54

32:                                               ; preds = %30
  %33 = getelementptr inbounds %struct.DNSZoneRecord, ptr %6, i64 0, i32 8
  %34 = getelementptr inbounds %struct.DNSZoneRecord, ptr %6, i64 0, i32 8, i32 2
  store i16 59, ptr %34, align 8, !tbaa !37
  %35 = getelementptr inbounds %class.PacketHandler, ptr %0, i64 0, i32 5, i32 8
  %36 = load i32, ptr %35, align 4, !tbaa !42
  %37 = getelementptr inbounds %struct.DNSZoneRecord, ptr %6, i64 0, i32 8, i32 4
  store i32 %36, ptr %37, align 4, !tbaa !43
  %38 = invoke noundef nonnull align 8 dereferenceable(24) ptr @_ZN7DNSNameaSERKS_(ptr noundef nonnull align 8 dereferenceable(24) %33, ptr noundef nonnull align 8 dereferenceable(24) %23)
          to label %39 unwind label %56

39:                                               ; preds = %32
  %40 = getelementptr inbounds %struct.DNSZoneRecord, ptr %6, i64 0, i32 5
  store i8 1, ptr %40, align 8, !tbaa !44
  call void @llvm.lifetime.start.p0(i64 8, ptr nonnull %7) #26
  %41 = call i64 @_ZNSt3__16vectorINS_12basic_stringIcNS_11char_traitsIcEENS_9allocatorIcEEEENS4_IS6_EEE5beginB7v160006Ev(ptr noundef nonnull align 8 dereferenceable(24) %5) #26
  %42 = call i64 @_ZNSt3__16vectorINS_12basic_stringIcNS_11char_traitsIcEENS_9allocatorIcEEEENS4_IS6_EEE3endB7v160006Ev(ptr noundef nonnull align 8 dereferenceable(24) %5) #26
  %43 = call i64 @_ZNSt3__14findB7v160006INS_11__wrap_iterIPNS_12basic_stringIcNS_11char_traitsIcEENS_9allocatorIcEEEEEEA2_cEET_SB_SB_RKT0_(i64 %41, i64 %42, ptr noundef nonnull align 1 dereferenceable(2) @.str.12)
  %44 = inttoptr i64 %43 to ptr
  store ptr %44, ptr %7, align 8
  call void @llvm.lifetime.start.p0(i64 8, ptr nonnull %8) #26
  %45 = call i64 @_ZNSt3__16vectorINS_12basic_stringIcNS_11char_traitsIcEENS_9allocatorIcEEEENS4_IS6_EEE3endB7v160006Ev(ptr noundef nonnull align 8 dereferenceable(24) %5) #26
  %46 = inttoptr i64 %45 to ptr
  store ptr %46, ptr %8, align 8
  %47 = call noundef zeroext i1 @_ZNSt3__1neB7v160006IPNS_12basic_stringIcNS_11char_traitsIcEENS_9allocatorIcEEEEEEbRKNS_11__wrap_iterIT_EESC_(ptr noundef nonnull align 8 dereferenceable(8) %7, ptr noundef nonnull align 8 dereferenceable(8) %8) #26
  call void @llvm.lifetime.end.p0(i64 8, ptr nonnull %8) #26
  call void @llvm.lifetime.end.p0(i64 8, ptr nonnull %7) #26
  br i1 %47, label %48, label %58

48:                                               ; preds = %39
  call void @llvm.lifetime.start.p0(i64 16, ptr nonnull %9) #26
  %49 = call noundef ptr @_ZNSt3__110shared_ptrIK16DNSRecordContentEC1B7v160006I16CDSRecordContentvEERKNS0_IT_EE(ptr noundef nonnull align 8 dereferenceable(16) %9, ptr noundef nonnull align 8 dereferenceable(16) @_ZN13PacketHandler18s_deleteCDSContentE) #26
  call void @_ZN9DNSRecord10setContentEONSt3__110shared_ptrIK16DNSRecordContentEE(ptr noundef nonnull align 8 dereferenceable(51) %33, ptr noundef nonnull align 8 dereferenceable(16) %9)
  %50 = call noundef ptr @_ZNSt3__110shared_ptrIK16DNSRecordContentED1B7v160006Ev(ptr noundef nonnull align 8 dereferenceable(16) %9) #26
  call void @llvm.lifetime.end.p0(i64 16, ptr nonnull %9) #26
  %51 = call noundef ptr @_ZNKSt3__110unique_ptrI9DNSPacketNS_14default_deleteIS1_EEEptB7v160006Ev(ptr noundef nonnull align 8 dereferenceable(8) %2) #26
  invoke void @_ZN9DNSPacket9addRecordEO13DNSZoneRecord(ptr noundef nonnull align 8 dereferenceable(648) %51, ptr noundef nonnull align 8 dereferenceable(104) %6)
          to label %164 unwind label %56

52:                                               ; preds = %28
  %53 = landingpad { ptr, i32 }
          cleanup
  br label %173

54:                                               ; preds = %30
  %55 = landingpad { ptr, i32 }
          cleanup
  br label %171

56:                                               ; preds = %48, %32
  %57 = landingpad { ptr, i32 }
          cleanup
  br label %168

58:                                               ; preds = %39
  call void @llvm.lifetime.start.p0(i64 24, ptr nonnull %10) #26
  invoke void @_ZN12DNSSECKeeper14getEntryPointsERK7DNSName(ptr nonnull sret(%"class.std::__1::vector.102") align 8 %10, ptr noundef nonnull align 8 dereferenceable(25) %22, ptr noundef nonnull align 8 dereferenceable(24) %23)
          to label %59 unwind label %68

59:                                               ; preds = %58
  call void @llvm.lifetime.start.p0(i64 8, ptr nonnull %11) #26
  %60 = call i64 @_ZNSt3__16vectorINS_4pairI16DNSSECPrivateKeyN12DNSSECKeeper11KeyMetaDataEEENS_9allocatorIS5_EEE5beginB7v160006Ev(ptr noundef nonnull align 8 dereferenceable(24) %10) #26
  %61 = inttoptr i64 %60 to ptr
  store ptr %61, ptr %11, align 8
  call void @llvm.lifetime.start.p0(i64 8, ptr nonnull %12) #26
  %62 = call i64 @_ZNSt3__16vectorINS_4pairI16DNSSECPrivateKeyN12DNSSECKeeper11KeyMetaDataEEENS_9allocatorIS5_EEE3endB7v160006Ev(ptr noundef nonnull align 8 dereferenceable(24) %10) #26
  %63 = inttoptr i64 %62 to ptr
  store ptr %63, ptr %12, align 8
  %64 = call noundef zeroext i1 @_ZNSt3__1neB7v160006IPNS_4pairI16DNSSECPrivateKeyN12DNSSECKeeper11KeyMetaDataEEEEEbRKNS_11__wrap_iterIT_EESB_(ptr noundef nonnull align 8 dereferenceable(8) %11, ptr noundef nonnull align 8 dereferenceable(8) %12) #26
  br i1 %64, label %70, label %65

65:                                               ; preds = %119, %59
  %66 = phi i1 [ false, %59 ], [ %120, %119 ]
  call void @llvm.lifetime.end.p0(i64 8, ptr nonnull %12) #26
  call void @llvm.lifetime.end.p0(i64 8, ptr nonnull %11) #26
  %67 = invoke noundef nonnull align 8 dereferenceable(168) ptr @_Z3argv()
          to label %123 unwind label %145

68:                                               ; preds = %58
  %69 = landingpad { ptr, i32 }
          cleanup
  br label %162

70:                                               ; preds = %59, %119
  %71 = phi i1 [ %120, %119 ], [ false, %59 ]
  %72 = call noundef nonnull align 8 dereferenceable(104) ptr @_ZNKSt3__111__wrap_iterIPNS_4pairI16DNSSECPrivateKeyN12DNSSECKeeper11KeyMetaDataEEEEdeB7v160006Ev(ptr noundef nonnull align 8 dereferenceable(8) %11) #26
  %73 = getelementptr inbounds %"struct.std::__1::pair.103", ptr %72, i64 0, i32 1, i32 6
  %74 = load i8, ptr %73, align 1, !tbaa !45, !range !57, !noundef !58
  %75 = icmp eq i8 %74, 0
  br i1 %75, label %119, label %76

76:                                               ; preds = %70
  call void @llvm.lifetime.start.p0(i64 8, ptr nonnull %13) #26
  %77 = call i64 @_ZNSt3__16vectorINS_12basic_stringIcNS_11char_traitsIcEENS_9allocatorIcEEEENS4_IS6_EEE5beginB7v160006Ev(ptr noundef nonnull align 8 dereferenceable(24) %5) #26
  %78 = inttoptr i64 %77 to ptr
  store ptr %78, ptr %13, align 8
  call void @llvm.lifetime.start.p0(i64 8, ptr nonnull %14) #26
  %79 = call i64 @_ZNSt3__16vectorINS_12basic_stringIcNS_11char_traitsIcEENS_9allocatorIcEEEENS4_IS6_EEE3endB7v160006Ev(ptr noundef nonnull align 8 dereferenceable(24) %5) #26
  %80 = inttoptr i64 %79 to ptr
  store ptr %80, ptr %14, align 8
  %81 = call noundef zeroext i1 @_ZNSt3__1neB7v160006IPNS_12basic_stringIcNS_11char_traitsIcEENS_9allocatorIcEEEEEEbRKNS_11__wrap_iterIT_EESC_(ptr noundef nonnull align 8 dereferenceable(8) %13, ptr noundef nonnull align 8 dereferenceable(8) %14) #26
  br i1 %81, label %84, label %82

82:                                               ; preds = %99, %76
  %83 = phi i1 [ %71, %76 ], [ true, %99 ]
  call void @llvm.lifetime.end.p0(i64 8, ptr nonnull %14) #26
  call void @llvm.lifetime.end.p0(i64 8, ptr nonnull %13) #26
  br label %119

84:                                               ; preds = %76, %99
  %85 = call noundef nonnull align 8 dereferenceable(24) ptr @_ZNKSt3__111__wrap_iterIPNS_12basic_stringIcNS_11char_traitsIcEENS_9allocatorIcEEEEEdeB7v160006Ev(ptr noundef nonnull align 8 dereferenceable(8) %13) #26
  call void @llvm.lifetime.start.p0(i64 16, ptr nonnull %15) #26
  call void @llvm.lifetime.start.p0(i64 16, ptr nonnull %16) #26
  call void @llvm.lifetime.start.p0(i64 40, ptr nonnull %17) #26
  %86 = invoke noundef nonnull align 8 dereferenceable(40) ptr @_ZNK16DNSSECPrivateKey9getDNSKEYEv(ptr noundef nonnull align 8 dereferenceable(59) %72)
          to label %87 unwind label %103

87:                                               ; preds = %84
  %88 = invoke noundef zeroext i8 @_ZN4pdns12checked_stoiIhEET_RKNSt3__112basic_stringIcNS2_11char_traitsIcEENS2_9allocatorIcEEEEPmi(ptr noundef nonnull align 8 dereferenceable(24) %85, ptr noundef null, i32 noundef 10)
          to label %89 unwind label %103

89:                                               ; preds = %87
  invoke void @_Z16makeDSFromDNSKeyRK7DNSNameRK19DNSKEYRecordContenth(ptr nonnull sret(%class.DSRecordContent) align 8 %17, ptr noundef nonnull align 8 dereferenceable(24) %23, ptr noundef nonnull align 8 dereferenceable(40) %86, i8 noundef zeroext %88)
          to label %90 unwind label %103

90:                                               ; preds = %89
  invoke void @_ZNSt3__111make_sharedB7v160006I15DSRecordContentJS1_EvEENS_10shared_ptrIT_EEDpOT0_(ptr nonnull sret(%"class.std::__1::shared_ptr.114") align 8 %16, ptr noundef nonnull align 8 dereferenceable(40) %17)
          to label %91 unwind label %105

91:                                               ; preds = %90
  %92 = call noundef ptr @_ZNSt3__110shared_ptrIK16DNSRecordContentEC1B7v160006I15DSRecordContentvEEONS0_IT_EE(ptr noundef nonnull align 8 dereferenceable(16) %15, ptr noundef nonnull align 8 dereferenceable(16) %16) #26
  call void @_ZN9DNSRecord10setContentEONSt3__110shared_ptrIK16DNSRecordContentEE(ptr noundef nonnull align 8 dereferenceable(51) %33, ptr noundef nonnull align 8 dereferenceable(16) %15)
  %93 = call noundef ptr @_ZNSt3__110shared_ptrIK16DNSRecordContentED1B7v160006Ev(ptr noundef nonnull align 8 dereferenceable(16) %15) #26
  %94 = call noundef ptr @_ZNSt3__110shared_ptrI15DSRecordContentED1B7v160006Ev(ptr noundef nonnull align 8 dereferenceable(16) %16) #26
  %95 = call noundef ptr @_ZN15DSRecordContentD1Ev(ptr noundef nonnull align 8 dereferenceable(40) %17) #26
  call void @llvm.lifetime.end.p0(i64 40, ptr nonnull %17) #26
  call void @llvm.lifetime.end.p0(i64 16, ptr nonnull %16) #26
  call void @llvm.lifetime.end.p0(i64 16, ptr nonnull %15) #26
  %96 = call noundef ptr @_ZNKSt3__110unique_ptrI9DNSPacketNS_14default_deleteIS1_EEEptB7v160006Ev(ptr noundef nonnull align 8 dereferenceable(8) %2) #26
  call void @llvm.lifetime.start.p0(i64 104, ptr nonnull %18) #26
  %97 = invoke noundef ptr @_ZN13DNSZoneRecordC1ERKS_(ptr noundef nonnull align 8 dereferenceable(104) %18, ptr noundef nonnull align 8 dereferenceable(104) %6)
          to label %98 unwind label %110

98:                                               ; preds = %91
  invoke void @_ZN9DNSPacket9addRecordEO13DNSZoneRecord(ptr noundef nonnull align 8 dereferenceable(648) %96, ptr noundef nonnull align 8 dereferenceable(104) %18)
          to label %99 unwind label %112

99:                                               ; preds = %98
  %100 = call noundef ptr @_ZN13DNSZoneRecordD1Ev(ptr noundef nonnull align 8 dereferenceable(104) %18) #26
  call void @llvm.lifetime.end.p0(i64 104, ptr nonnull %18) #26
  %101 = call noundef nonnull align 8 dereferenceable(8) ptr @_ZNSt3__111__wrap_iterIPNS_12basic_stringIcNS_11char_traitsIcEENS_9allocatorIcEEEEEppB7v160006Ev(ptr noundef nonnull align 8 dereferenceable(8) %13) #26
  %102 = call noundef zeroext i1 @_ZNSt3__1neB7v160006IPNS_12basic_stringIcNS_11char_traitsIcEENS_9allocatorIcEEEEEEbRKNS_11__wrap_iterIT_EESC_(ptr noundef nonnull align 8 dereferenceable(8) %13, ptr noundef nonnull align 8 dereferenceable(8) %14) #26
  br i1 %102, label %84, label %82, !llvm.loop !73

103:                                              ; preds = %89, %87, %84
  %104 = landingpad { ptr, i32 }
          cleanup
  br label %108

105:                                              ; preds = %90
  %106 = landingpad { ptr, i32 }
          cleanup
  %107 = call noundef ptr @_ZN15DSRecordContentD1Ev(ptr noundef nonnull align 8 dereferenceable(40) %17) #26
  br label %108

108:                                              ; preds = %105, %103
  %109 = phi { ptr, i32 } [ %106, %105 ], [ %104, %103 ]
  call void @llvm.lifetime.end.p0(i64 40, ptr nonnull %17) #26
  call void @llvm.lifetime.end.p0(i64 16, ptr nonnull %16) #26
  call void @llvm.lifetime.end.p0(i64 16, ptr nonnull %15) #26
  br label %117

110:                                              ; preds = %91
  %111 = landingpad { ptr, i32 }
          cleanup
  br label %115

112:                                              ; preds = %98
  %113 = landingpad { ptr, i32 }
          cleanup
  %114 = call noundef ptr @_ZN13DNSZoneRecordD1Ev(ptr noundef nonnull align 8 dereferenceable(104) %18) #26
  br label %115

115:                                              ; preds = %112, %110
  %116 = phi { ptr, i32 } [ %113, %112 ], [ %111, %110 ]
  call void @llvm.lifetime.end.p0(i64 104, ptr nonnull %18) #26
  br label %117

117:                                              ; preds = %115, %108
  %118 = phi { ptr, i32 } [ %116, %115 ], [ %109, %108 ]
  call void @llvm.lifetime.end.p0(i64 8, ptr nonnull %14) #26
  call void @llvm.lifetime.end.p0(i64 8, ptr nonnull %13) #26
  call void @llvm.lifetime.end.p0(i64 8, ptr nonnull %12) #26
  call void @llvm.lifetime.end.p0(i64 8, ptr nonnull %11) #26
  br label %159

119:                                              ; preds = %70, %82
  %120 = phi i1 [ %83, %82 ], [ %71, %70 ]
  %121 = call noundef nonnull align 8 dereferenceable(8) ptr @_ZNSt3__111__wrap_iterIPNS_4pairI16DNSSECPrivateKeyN12DNSSECKeeper11KeyMetaDataEEEEppB7v160006Ev(ptr noundef nonnull align 8 dereferenceable(8) %11) #26
  %122 = call noundef zeroext i1 @_ZNSt3__1neB7v160006IPNS_4pairI16DNSSECPrivateKeyN12DNSSECKeeper11KeyMetaDataEEEEEbRKNS_11__wrap_iterIT_EESB_(ptr noundef nonnull align 8 dereferenceable(8) %11, ptr noundef nonnull align 8 dereferenceable(8) %12) #26
  br i1 %122, label %70, label %65, !llvm.loop !74

123:                                              ; preds = %65
  call void @llvm.lifetime.start.p0(i64 24, ptr nonnull %19) #26
  %124 = invoke noundef ptr @_ZNSt3__112basic_stringIcNS_11char_traitsIcEENS_9allocatorIcEEEC1B7v160006IDnEEPKc(ptr noundef nonnull align 8 dereferenceable(24) %19, ptr noundef nonnull @.str.13)
          to label %125 unwind label %147

125:                                              ; preds = %123
  %126 = invoke noundef zeroext i1 @_ZN7ArgvMap6mustDoERKNSt3__112basic_stringIcNS0_11char_traitsIcEENS0_9allocatorIcEEEE(ptr noundef nonnull align 8 dereferenceable(168) %67, ptr noundef nonnull align 8 dereferenceable(24) %19)
          to label %127 unwind label %149

127:                                              ; preds = %125
  %128 = call noundef ptr @_ZNSt3__112basic_stringIcNS_11char_traitsIcEENS_9allocatorIcEEED1Ev(ptr noundef nonnull align 8 dereferenceable(24) %19) #26
  call void @llvm.lifetime.end.p0(i64 24, ptr nonnull %19) #26
  br i1 %126, label %129, label %156

129:                                              ; preds = %127
  %130 = getelementptr inbounds %class.PacketHandler, ptr %0, i64 0, i32 9
  call void @llvm.lifetime.start.p0(i64 2, ptr nonnull %20) #26
  %131 = invoke noundef ptr @_ZN5QTypeC1Et(ptr noundef nonnull align 2 dereferenceable(2) %20, i16 noundef zeroext 59)
          to label %132 unwind label %154

132:                                              ; preds = %129
  %133 = getelementptr inbounds %class.PacketHandler, ptr %0, i64 0, i32 5, i32 10
  %134 = load i32, ptr %133, align 8, !tbaa !61
  invoke void @_ZN12UeberBackend6lookupERK5QTypeRK7DNSNameiP9DNSPacket(ptr noundef nonnull align 8 dereferenceable(165) %130, ptr noundef nonnull align 2 dereferenceable(2) %20, ptr noundef nonnull align 8 dereferenceable(24) %23, i32 noundef %134, ptr noundef nonnull %1)
          to label %135 unwind label %154

135:                                              ; preds = %132
  call void @llvm.lifetime.end.p0(i64 2, ptr nonnull %20) #26
  br label %136

136:                                              ; preds = %140, %135
  %137 = phi i1 [ %66, %135 ], [ true, %140 ]
  %138 = invoke noundef zeroext i1 @_ZN12UeberBackend3getER13DNSZoneRecord(ptr noundef nonnull align 8 dereferenceable(165) %130, ptr noundef nonnull align 8 dereferenceable(104) %6)
          to label %139 unwind label %143

139:                                              ; preds = %136
  br i1 %138, label %140, label %156

140:                                              ; preds = %139
  %141 = load i32, ptr %35, align 4, !tbaa !42
  store i32 %141, ptr %37, align 4, !tbaa !43
  %142 = call noundef ptr @_ZNKSt3__110unique_ptrI9DNSPacketNS_14default_deleteIS1_EEEptB7v160006Ev(ptr noundef nonnull align 8 dereferenceable(8) %2) #26
  invoke void @_ZN9DNSPacket9addRecordEO13DNSZoneRecord(ptr noundef nonnull align 8 dereferenceable(648) %142, ptr noundef nonnull align 8 dereferenceable(104) %6)
          to label %136 unwind label %143, !llvm.loop !75

143:                                              ; preds = %136, %140
  %144 = landingpad { ptr, i32 }
          cleanup
  br label %159

145:                                              ; preds = %65
  %146 = landingpad { ptr, i32 }
          cleanup
  br label %159

147:                                              ; preds = %123
  %148 = landingpad { ptr, i32 }
          cleanup
  br label %152

149:                                              ; preds = %125
  %150 = landingpad { ptr, i32 }
          cleanup
  %151 = call noundef ptr @_ZNSt3__112basic_stringIcNS_11char_traitsIcEENS_9allocatorIcEEED1Ev(ptr noundef nonnull align 8 dereferenceable(24) %19) #26
  br label %152

152:                                              ; preds = %149, %147
  %153 = phi { ptr, i32 } [ %150, %149 ], [ %148, %147 ]
  call void @llvm.lifetime.end.p0(i64 24, ptr nonnull %19) #26
  br label %159

154:                                              ; preds = %132, %129
  %155 = landingpad { ptr, i32 }
          cleanup
  call void @llvm.lifetime.end.p0(i64 2, ptr nonnull %20) #26
  br label %159

156:                                              ; preds = %139, %127
  %157 = phi i1 [ %66, %127 ], [ %137, %139 ]
  %158 = call noundef ptr @_ZNSt3__16vectorINS_4pairI16DNSSECPrivateKeyN12DNSSECKeeper11KeyMetaDataEEENS_9allocatorIS5_EEED1B7v160006Ev(ptr noundef nonnull align 8 dereferenceable(24) %10) #26
  call void @llvm.lifetime.end.p0(i64 24, ptr nonnull %10) #26
  br label %164

159:                                              ; preds = %143, %145, %154, %152, %117
  %160 = phi { ptr, i32 } [ %118, %117 ], [ %155, %154 ], [ %153, %152 ], [ %144, %143 ], [ %146, %145 ]
  %161 = call noundef ptr @_ZNSt3__16vectorINS_4pairI16DNSSECPrivateKeyN12DNSSECKeeper11KeyMetaDataEEENS_9allocatorIS5_EEED1B7v160006Ev(ptr noundef nonnull align 8 dereferenceable(24) %10) #26
  br label %162

162:                                              ; preds = %159, %68
  %163 = phi { ptr, i32 } [ %160, %159 ], [ %69, %68 ]
  call void @llvm.lifetime.end.p0(i64 24, ptr nonnull %10) #26
  br label %168

164:                                              ; preds = %48, %156
  %165 = phi i1 [ %157, %156 ], [ true, %48 ]
  %166 = call noundef ptr @_ZN13DNSZoneRecordD1Ev(ptr noundef nonnull align 8 dereferenceable(104) %6) #26
  call void @llvm.lifetime.end.p0(i64 104, ptr nonnull %6) #26
  %167 = call noundef ptr @_ZNSt3__16vectorINS_12basic_stringIcNS_11char_traitsIcEENS_9allocatorIcEEEENS4_IS6_EEED1B7v160006Ev(ptr noundef nonnull align 8 dereferenceable(24) %5) #26
  call void @llvm.lifetime.end.p0(i64 24, ptr nonnull %5) #26
  br label %176

168:                                              ; preds = %162, %56
  %169 = phi { ptr, i32 } [ %57, %56 ], [ %163, %162 ]
  %170 = call noundef ptr @_ZN13DNSZoneRecordD1Ev(ptr noundef nonnull align 8 dereferenceable(104) %6) #26
  br label %171

171:                                              ; preds = %168, %54
  %172 = phi { ptr, i32 } [ %169, %168 ], [ %55, %54 ]
  call void @llvm.lifetime.end.p0(i64 104, ptr nonnull %6) #26
  br label %173

173:                                              ; preds = %171, %52
  %174 = phi { ptr, i32 } [ %172, %171 ], [ %53, %52 ]
  %175 = call noundef ptr @_ZNSt3__16vectorINS_12basic_stringIcNS_11char_traitsIcEENS_9allocatorIcEEEENS4_IS6_EEED1B7v160006Ev(ptr noundef nonnull align 8 dereferenceable(24) %5) #26
  call void @llvm.lifetime.end.p0(i64 24, ptr nonnull %5) #26
  br label %179

176:                                              ; preds = %24, %164
  %177 = phi i1 [ %165, %164 ], [ false, %24 ]
  %178 = call noundef ptr @_ZNSt3__112basic_stringIcNS_11char_traitsIcEENS_9allocatorIcEEED1Ev(ptr noundef nonnull align 8 dereferenceable(24) %4) #26
  call void @llvm.lifetime.end.p0(i64 24, ptr nonnull %4) #26
  ret i1 %177

179:                                              ; preds = %173, %26
  %180 = phi { ptr, i32 } [ %174, %173 ], [ %27, %26 ]
  %181 = call noundef ptr @_ZNSt3__112basic_stringIcNS_11char_traitsIcEENS_9allocatorIcEEED1Ev(ptr noundef nonnull align 8 dereferenceable(24) %4) #26
  call void @llvm.lifetime.end.p0(i64 24, ptr nonnull %4) #26
  resume { ptr, i32 } %180
}

declare void @_ZN12DNSSECKeeper13getPublishCDSERK7DNSNameRNSt3__112basic_stringIcNS3_11char_traitsIcEENS3_9allocatorIcEEEE(ptr noundef nonnull align 8 dereferenceable(25), ptr noundef nonnull align 8 dereferenceable(24), ptr noundef nonnull align 8 dereferenceable(24)) local_unnamed_addr #5

; Function Attrs: noinline nounwind ssp uwtable(sync)
define linkonce_odr hidden noundef ptr @_ZNSt3__16vectorINS_12basic_stringIcNS_11char_traitsIcEENS_9allocatorIcEEEENS4_IS6_EEEC1B7v160006Ev(ptr noundef nonnull returned align 8 dereferenceable(24) %0) unnamed_addr #2 align 2 {
  %2 = tail call noundef ptr @_ZNSt3__16vectorINS_12basic_stringIcNS_11char_traitsIcEENS_9allocatorIcEEEENS4_IS6_EEEC2B7v160006Ev(ptr noundef nonnull align 8 dereferenceable(24) %0) #26
  ret ptr %0
}

; Function Attrs: mustprogress noinline ssp uwtable(sync)
define linkonce_odr void @_Z9stringtokINSt3__16vectorINS0_12basic_stringIcNS0_11char_traitsIcEENS0_9allocatorIcEEEENS5_IS7_EEEEEvRT_RKS7_PKc(ptr noundef nonnull align 8 dereferenceable(24) %0, ptr noundef nonnull align 8 dereferenceable(24) %1, ptr noundef %2) local_unnamed_addr #4 personality ptr @__gxx_personality_v0 {
  %4 = alloca %"class.std::__1::basic_string", align 8
  %5 = alloca %"class.std::__1::basic_string", align 8
  %6 = tail call noundef i64 @_ZNKSt3__112basic_stringIcNS_11char_traitsIcEENS_9allocatorIcEEE6lengthB7v160006Ev(ptr noundef nonnull align 8 dereferenceable(24) %1) #26
  br label %7

7:                                                ; preds = %30, %3
  %8 = phi i64 [ 0, %3 ], [ %31, %30 ]
  %9 = icmp ult i64 %8, %6
  br i1 %9, label %10, label %34

10:                                               ; preds = %7
  %11 = call noundef i64 @_ZNKSt3__112basic_stringIcNS_11char_traitsIcEENS_9allocatorIcEEE17find_first_not_ofB7v160006EPKcm(ptr noundef nonnull align 8 dereferenceable(24) %1, ptr noundef %2, i64 noundef %8) #26
  %12 = icmp eq i64 %11, -1
  br i1 %12, label %34, label %13

13:                                               ; preds = %10
  %14 = call noundef i64 @_ZNKSt3__112basic_stringIcNS_11char_traitsIcEENS_9allocatorIcEEE13find_first_ofB7v160006EPKcm(ptr noundef nonnull align 8 dereferenceable(24) %1, ptr noundef %2, i64 noundef %11) #26
  %15 = icmp eq i64 %14, -1
  br i1 %15, label %16, label %22

16:                                               ; preds = %13
  call void @llvm.lifetime.start.p0(i64 24, ptr nonnull %4) #26
  call void @_ZNKSt3__112basic_stringIcNS_11char_traitsIcEENS_9allocatorIcEEE6substrB7v160006Emm(ptr nonnull sret(%"class.std::__1::basic_string") align 8 %4, ptr noundef nonnull align 8 dereferenceable(24) %1, i64 noundef %11, i64 noundef -1)
  invoke void @_ZNSt3__16vectorINS_12basic_stringIcNS_11char_traitsIcEENS_9allocatorIcEEEENS4_IS6_EEE9push_backB7v160006EOS6_(ptr noundef nonnull align 8 dereferenceable(24) %0, ptr noundef nonnull align 8 dereferenceable(24) %4)
          to label %17 unwind label %19

17:                                               ; preds = %16
  %18 = call noundef ptr @_ZNSt3__112basic_stringIcNS_11char_traitsIcEENS_9allocatorIcEEED1Ev(ptr noundef nonnull align 8 dereferenceable(24) %4) #26
  call void @llvm.lifetime.end.p0(i64 24, ptr nonnull %4) #26
  br label %30

19:                                               ; preds = %16
  %20 = landingpad { ptr, i32 }
          cleanup
  %21 = call noundef ptr @_ZNSt3__112basic_stringIcNS_11char_traitsIcEENS_9allocatorIcEEED1Ev(ptr noundef nonnull align 8 dereferenceable(24) %4) #26
  call void @llvm.lifetime.end.p0(i64 24, ptr nonnull %4) #26
  br label %32

22:                                               ; preds = %13
  call void @llvm.lifetime.start.p0(i64 24, ptr nonnull %5) #26
  %23 = sub i64 %14, %11
  call void @_ZNKSt3__112basic_stringIcNS_11char_traitsIcEENS_9allocatorIcEEE6substrB7v160006Emm(ptr nonnull sret(%"class.std::__1::basic_string") align 8 %5, ptr noundef nonnull align 8 dereferenceable(24) %1, i64 noundef %11, i64 noundef %23)
  invoke void @_ZNSt3__16vectorINS_12basic_stringIcNS_11char_traitsIcEENS_9allocatorIcEEEENS4_IS6_EEE9push_backB7v160006EOS6_(ptr noundef nonnull align 8 dereferenceable(24) %0, ptr noundef nonnull align 8 dereferenceable(24) %5)
          to label %24 unwind label %27

24:                                               ; preds = %22
  %25 = call noundef ptr @_ZNSt3__112basic_stringIcNS_11char_traitsIcEENS_9allocatorIcEEED1Ev(ptr noundef nonnull align 8 dereferenceable(24) %5) #26
  call void @llvm.lifetime.end.p0(i64 24, ptr nonnull %5) #26
  %26 = add i64 %14, 1
  br label %30

27:                                               ; preds = %22
  %28 = landingpad { ptr, i32 }
          cleanup
  %29 = call noundef ptr @_ZNSt3__112basic_stringIcNS_11char_traitsIcEENS_9allocatorIcEEED1Ev(ptr noundef nonnull align 8 dereferenceable(24) %5) #26
  call void @llvm.lifetime.end.p0(i64 24, ptr nonnull %5) #26
  br label %32

30:                                               ; preds = %24, %17
  %31 = phi i64 [ %11, %17 ], [ %26, %24 ]
  br i1 %15, label %34, label %7, !llvm.loop !76

32:                                               ; preds = %27, %19
  %33 = phi { ptr, i32 } [ %20, %19 ], [ %28, %27 ]
  resume { ptr, i32 } %33

34:                                               ; preds = %7, %10, %30
  ret void
}

; Function Attrs: mustprogress noinline nounwind ssp uwtable(sync)
define linkonce_odr hidden noundef zeroext i1 @_ZNSt3__1neB7v160006IPNS_12basic_stringIcNS_11char_traitsIcEENS_9allocatorIcEEEEEEbRKNS_11__wrap_iterIT_EESC_(ptr noundef nonnull align 8 dereferenceable(8) %0, ptr noundef nonnull align 8 dereferenceable(8) %1) local_unnamed_addr #6 {
  %3 = tail call noundef zeroext i1 @_ZNSt3__1eqB7v160006IPNS_12basic_stringIcNS_11char_traitsIcEENS_9allocatorIcEEEEEEbRKNS_11__wrap_iterIT_EESC_(ptr noundef nonnull align 8 dereferenceable(8) %0, ptr noundef nonnull align 8 dereferenceable(8) %1) #26
  %4 = xor i1 %3, true
  ret i1 %4
}

; Function Attrs: mustprogress noinline nounwind ssp uwtable(sync)
define linkonce_odr hidden i64 @_ZNSt3__14findB7v160006INS_11__wrap_iterIPNS_12basic_stringIcNS_11char_traitsIcEENS_9allocatorIcEEEEEEA2_cEET_SB_SB_RKT0_(i64 %0, i64 %1, ptr noundef nonnull align 1 dereferenceable(2) %2) local_unnamed_addr #6 {
  %4 = alloca %"class.std::__1::__wrap_iter.113", align 8
  %5 = alloca %"class.std::__1::__wrap_iter.113", align 8
  %6 = inttoptr i64 %0 to ptr
  store ptr %6, ptr %4, align 8
  %7 = inttoptr i64 %1 to ptr
  store ptr %7, ptr %5, align 8
  %8 = call noundef zeroext i1 @_ZNSt3__1neB7v160006IPNS_12basic_stringIcNS_11char_traitsIcEENS_9allocatorIcEEEEEEbRKNS_11__wrap_iterIT_EESC_(ptr noundef nonnull align 8 dereferenceable(8) %4, ptr noundef nonnull align 8 dereferenceable(8) %5) #26
  br i1 %8, label %9, label %15

9:                                                ; preds = %3, %12
  %10 = call noundef nonnull align 8 dereferenceable(24) ptr @_ZNKSt3__111__wrap_iterIPNS_12basic_stringIcNS_11char_traitsIcEENS_9allocatorIcEEEEEdeB7v160006Ev(ptr noundef nonnull align 8 dereferenceable(8) %4) #26
  %11 = call noundef zeroext i1 @_ZNSt3__1eqB7v160006IcNS_11char_traitsIcEENS_9allocatorIcEEEEbRKNS_12basic_stringIT_T0_T1_EEPKS6_(ptr noundef nonnull align 8 dereferenceable(24) %10, ptr noundef nonnull %2) #26
  br i1 %11, label %15, label %12

12:                                               ; preds = %9
  %13 = call noundef nonnull align 8 dereferenceable(8) ptr @_ZNSt3__111__wrap_iterIPNS_12basic_stringIcNS_11char_traitsIcEENS_9allocatorIcEEEEEppB7v160006Ev(ptr noundef nonnull align 8 dereferenceable(8) %4) #26
  %14 = call noundef zeroext i1 @_ZNSt3__1neB7v160006IPNS_12basic_stringIcNS_11char_traitsIcEENS_9allocatorIcEEEEEEbRKNS_11__wrap_iterIT_EESC_(ptr noundef nonnull align 8 dereferenceable(8) %4, ptr noundef nonnull align 8 dereferenceable(8) %5) #26
  br i1 %14, label %9, label %15, !llvm.loop !77

15:                                               ; preds = %12, %9, %3
  %16 = load ptr, ptr %4, align 8, !tbaa.struct !78
  %17 = ptrtoint ptr %16 to i64
  ret i64 %17
}

; Function Attrs: mustprogress noinline nounwind ssp uwtable(sync)
define linkonce_odr hidden i64 @_ZNSt3__16vectorINS_12basic_stringIcNS_11char_traitsIcEENS_9allocatorIcEEEENS4_IS6_EEE5beginB7v160006Ev(ptr noundef nonnull align 8 dereferenceable(24) %0) local_unnamed_addr #6 align 2 {
  %2 = load ptr, ptr %0, align 8, !tbaa !79
  %3 = tail call i64 @_ZNSt3__16vectorINS_12basic_stringIcNS_11char_traitsIcEENS_9allocatorIcEEEENS4_IS6_EEE11__make_iterB7v160006EPS6_(ptr noundef nonnull align 8 dereferenceable(24) %0, ptr noundef %2) #26
  ret i64 %3
}

; Function Attrs: mustprogress noinline nounwind ssp uwtable(sync)
define linkonce_odr hidden i64 @_ZNSt3__16vectorINS_12basic_stringIcNS_11char_traitsIcEENS_9allocatorIcEEEENS4_IS6_EEE3endB7v160006Ev(ptr noundef nonnull align 8 dereferenceable(24) %0) local_unnamed_addr #6 align 2 {
  %2 = getelementptr inbounds %"class.std::__1::vector.90", ptr %0, i64 0, i32 1
  %3 = load ptr, ptr %2, align 8, !tbaa !83
  %4 = tail call i64 @_ZNSt3__16vectorINS_12basic_stringIcNS_11char_traitsIcEENS_9allocatorIcEEEENS4_IS6_EEE11__make_iterB7v160006EPS6_(ptr noundef nonnull align 8 dereferenceable(24) %0, ptr noundef %3) #26
  ret i64 %4
}

; Function Attrs: noinline nounwind ssp uwtable(sync)
define linkonce_odr noundef ptr @_ZNSt3__110shared_ptrIK16DNSRecordContentEC1B7v160006I16CDSRecordContentvEERKNS0_IT_EE(ptr noundef nonnull returned align 8 dereferenceable(16) %0, ptr noundef nonnull align 8 dereferenceable(16) %1) unnamed_addr #2 align 2 {
  %3 = tail call noundef ptr @_ZNSt3__110shared_ptrIK16DNSRecordContentEC2B7v160006I16CDSRecordContentvEERKNS0_IT_EE(ptr noundef nonnull align 8 dereferenceable(16) %0, ptr noundef nonnull align 8 dereferenceable(16) %1) #26
  ret ptr %0
}

; Function Attrs: mustprogress noinline nounwind ssp uwtable(sync)
define linkonce_odr hidden noundef nonnull align 8 dereferenceable(24) ptr @_ZNKSt3__111__wrap_iterIPNS_12basic_stringIcNS_11char_traitsIcEENS_9allocatorIcEEEEEdeB7v160006Ev(ptr noundef nonnull align 8 dereferenceable(8) %0) local_unnamed_addr #6 align 2 {
  %2 = load ptr, ptr %0, align 8, !tbaa !84
  ret ptr %2
}

; Function Attrs: mustprogress noinline ssp uwtable(sync)
define linkonce_odr hidden void @_ZNSt3__111make_sharedB7v160006I15DSRecordContentJS1_EvEENS_10shared_ptrIT_EEDpOT0_(ptr noalias sret(%"class.std::__1::shared_ptr.114") align 8 %0, ptr noundef nonnull align 8 dereferenceable(40) %1) local_unnamed_addr #4 {
  %3 = alloca %"class.std::__1::allocator.551", align 1
  call void @llvm.lifetime.start.p0(i64 1, ptr nonnull %3) #26
  %4 = call noundef ptr @_ZNSt3__19allocatorI15DSRecordContentEC1B7v160006Ev(ptr noundef nonnull align 1 dereferenceable(1) %3) #26
  call void @_ZNSt3__115allocate_sharedB7v160006I15DSRecordContentNS_9allocatorIS1_EEJS1_EvEENS_10shared_ptrIT_EERKT0_DpOT1_(ptr sret(%"class.std::__1::shared_ptr.114") align 8 %0, ptr noundef nonnull align 1 dereferenceable(1) %3, ptr noundef nonnull align 8 dereferenceable(40) %1)
  call void @llvm.lifetime.end.p0(i64 1, ptr nonnull %3) #26
  ret void
}

declare void @_Z16makeDSFromDNSKeyRK7DNSNameRK19DNSKEYRecordContenth(ptr sret(%class.DSRecordContent) align 8, ptr noundef nonnull align 8 dereferenceable(24), ptr noundef nonnull align 8 dereferenceable(40), i8 noundef zeroext) local_unnamed_addr #5

; Function Attrs: mustprogress noinline ssp uwtable(sync)
define linkonce_odr noundef zeroext i8 @_ZN4pdns12checked_stoiIhEET_RKNSt3__112basic_stringIcNS2_11char_traitsIcEENS2_9allocatorIcEEEEPmi(ptr noundef nonnull align 8 dereferenceable(24) %0, ptr noundef %1, i32 noundef %2) local_unnamed_addr #4 {
  %4 = tail call noundef zeroext i1 @_ZNKSt3__112basic_stringIcNS_11char_traitsIcEENS_9allocatorIcEEE5emptyB7v160006Ev(ptr noundef nonnull align 8 dereferenceable(24) %0) #26
  br i1 %4, label %5, label %8

5:                                                ; preds = %3
  %6 = icmp eq ptr %1, null
  br i1 %6, label %11, label %7

7:                                                ; preds = %5
  store i64 0, ptr %1, align 8, !tbaa !86
  br label %11

8:                                                ; preds = %3
  %9 = tail call noundef i64 @_ZNSt3__16stoullERKNS_12basic_stringIcNS_11char_traitsIcEENS_9allocatorIcEEEEPmi(ptr noundef nonnull align 8 dereferenceable(24) %0, ptr noundef %1, i32 noundef %2)
  %10 = tail call noundef zeroext i8 @_ZN4pdns12checked_convIhyEET_T0_(i64 noundef %9)
  br label %11

11:                                               ; preds = %5, %7, %8
  %12 = phi i8 [ %10, %8 ], [ 0, %7 ], [ 0, %5 ]
  ret i8 %12
}

; Function Attrs: noinline nounwind ssp uwtable(sync)
define linkonce_odr noundef ptr @_ZNSt3__110shared_ptrIK16DNSRecordContentEC1B7v160006I15DSRecordContentvEEONS0_IT_EE(ptr noundef nonnull returned align 8 dereferenceable(16) %0, ptr noundef nonnull align 8 dereferenceable(16) %1) unnamed_addr #2 align 2 {
  %3 = tail call noundef ptr @_ZNSt3__110shared_ptrIK16DNSRecordContentEC2B7v160006I15DSRecordContentvEEONS0_IT_EE(ptr noundef nonnull align 8 dereferenceable(16) %0, ptr noundef nonnull align 8 dereferenceable(16) %1) #26
  ret ptr %0
}

; Function Attrs: noinline nounwind ssp uwtable(sync)
define linkonce_odr hidden noundef ptr @_ZNSt3__110shared_ptrI15DSRecordContentED1B7v160006Ev(ptr noundef nonnull returned align 8 dereferenceable(16) %0) unnamed_addr #2 align 2 {
  %2 = tail call noundef ptr @_ZNSt3__110shared_ptrI15DSRecordContentED2B7v160006Ev(ptr noundef nonnull align 8 dereferenceable(16) %0) #26
  ret ptr %0
}

; Function Attrs: noinline nounwind ssp uwtable(sync)
define linkonce_odr noundef ptr @_ZN15DSRecordContentD1Ev(ptr noundef nonnull returned align 8 dereferenceable(40) %0) unnamed_addr #2 align 2 {
  %2 = tail call noundef ptr @_ZN15DSRecordContentD2Ev(ptr noundef nonnull align 8 dereferenceable(40) %0) #26
  ret ptr %0
}

; Function Attrs: mustprogress noinline nounwind ssp uwtable(sync)
define linkonce_odr hidden noundef nonnull align 8 dereferenceable(8) ptr @_ZNSt3__111__wrap_iterIPNS_12basic_stringIcNS_11char_traitsIcEENS_9allocatorIcEEEEEppB7v160006Ev(ptr noundef nonnull align 8 dereferenceable(8) %0) local_unnamed_addr #6 align 2 {
  %2 = load ptr, ptr %0, align 8, !tbaa !84
  %3 = getelementptr inbounds %"class.std::__1::basic_string", ptr %2, i64 1
  store ptr %3, ptr %0, align 8, !tbaa !84
  ret ptr %0
}

; Function Attrs: noinline nounwind ssp uwtable(sync)
define linkonce_odr hidden noundef ptr @_ZNSt3__16vectorINS_12basic_stringIcNS_11char_traitsIcEENS_9allocatorIcEEEENS4_IS6_EEED1B7v160006Ev(ptr noundef nonnull returned align 8 dereferenceable(24) %0) unnamed_addr #2 align 2 {
  %2 = tail call noundef ptr @_ZNSt3__16vectorINS_12basic_stringIcNS_11char_traitsIcEENS_9allocatorIcEEEENS4_IS6_EEED2B7v160006Ev(ptr noundef nonnull align 8 dereferenceable(24) %0) #26
  ret ptr %0
}

; Function Attrs: mustprogress noinline ssp uwtable(sync)
define noundef zeroext i1 @_ZN13PacketHandler13addNSEC3PARAMERK9DNSPacketRNSt3__110unique_ptrIS0_NS3_14default_deleteIS0_EEEE(ptr noundef nonnull align 8 dereferenceable(344) %0, ptr noundef nonnull align 8 dereferenceable(648) %1, ptr noundef nonnull align 8 dereferenceable(8) %2) local_unnamed_addr #4 align 2 personality ptr @__gxx_personality_v0 {
  %4 = alloca %struct.DNSZoneRecord, align 8
  %5 = alloca %class.NSEC3PARAMRecordContent, align 8
  %6 = alloca %"class.std::__1::shared_ptr.53", align 8
  %7 = alloca %"class.std::__1::shared_ptr.115", align 8
  call void @llvm.lifetime.start.p0(i64 104, ptr nonnull %4) #26
  %8 = call noundef ptr @_ZN13DNSZoneRecordC1Ev(ptr noundef nonnull align 8 dereferenceable(104) %4)
  call void @llvm.lifetime.start.p0(i64 40, ptr nonnull %5) #26
  %9 = invoke noundef ptr @_ZN23NSEC3PARAMRecordContentC1Ev(ptr noundef nonnull align 8 dereferenceable(40) %5)
          to label %10 unwind label %30

10:                                               ; preds = %3
  %11 = getelementptr inbounds %class.PacketHandler, ptr %0, i64 0, i32 10
  %12 = getelementptr inbounds %class.DNSPacket, ptr %1, i64 0, i32 2
  %13 = invoke noundef zeroext i1 @_ZN12DNSSECKeeper13getNSEC3PARAMERK7DNSNameP23NSEC3PARAMRecordContentPbb(ptr noundef nonnull align 8 dereferenceable(25) %11, ptr noundef nonnull align 8 dereferenceable(24) %12, ptr noundef nonnull %5, ptr noundef null, i1 noundef zeroext true)
          to label %14 unwind label %32

14:                                               ; preds = %10
  br i1 %13, label %15, label %36

15:                                               ; preds = %14
  %16 = getelementptr inbounds %struct.DNSZoneRecord, ptr %4, i64 0, i32 8
  %17 = getelementptr inbounds %struct.DNSZoneRecord, ptr %4, i64 0, i32 8, i32 2
  store i16 51, ptr %17, align 8, !tbaa !37
  %18 = getelementptr inbounds %class.PacketHandler, ptr %0, i64 0, i32 5, i32 8
  %19 = load i32, ptr %18, align 4, !tbaa !42
  %20 = getelementptr inbounds %struct.DNSZoneRecord, ptr %4, i64 0, i32 8, i32 4
  store i32 %19, ptr %20, align 4, !tbaa !43
  %21 = invoke noundef nonnull align 8 dereferenceable(24) ptr @_ZN7DNSNameaSERKS_(ptr noundef nonnull align 8 dereferenceable(24) %16, ptr noundef nonnull align 8 dereferenceable(24) %12)
          to label %22 unwind label %32

22:                                               ; preds = %15
  %23 = getelementptr inbounds %class.NSEC3PARAMRecordContent, ptr %5, i64 0, i32 2
  store i8 0, ptr %23, align 1, !tbaa !88
  call void @llvm.lifetime.start.p0(i64 16, ptr nonnull %6) #26
  call void @llvm.lifetime.start.p0(i64 16, ptr nonnull %7) #26
  invoke void @_ZNSt3__111make_sharedB7v160006I23NSEC3PARAMRecordContentJRS1_EvEENS_10shared_ptrIT_EEDpOT0_(ptr nonnull sret(%"class.std::__1::shared_ptr.115") align 8 %7, ptr noundef nonnull align 8 dereferenceable(40) %5)
          to label %24 unwind label %34

24:                                               ; preds = %22
  %25 = call noundef ptr @_ZNSt3__110shared_ptrIK16DNSRecordContentEC1B7v160006I23NSEC3PARAMRecordContentvEEONS0_IT_EE(ptr noundef nonnull align 8 dereferenceable(16) %6, ptr noundef nonnull align 8 dereferenceable(16) %7) #26
  call void @_ZN9DNSRecord10setContentEONSt3__110shared_ptrIK16DNSRecordContentEE(ptr noundef nonnull align 8 dereferenceable(51) %16, ptr noundef nonnull align 8 dereferenceable(16) %6)
  %26 = call noundef ptr @_ZNSt3__110shared_ptrIK16DNSRecordContentED1B7v160006Ev(ptr noundef nonnull align 8 dereferenceable(16) %6) #26
  %27 = call noundef ptr @_ZNSt3__110shared_ptrI23NSEC3PARAMRecordContentED1B7v160006Ev(ptr noundef nonnull align 8 dereferenceable(16) %7) #26
  call void @llvm.lifetime.end.p0(i64 16, ptr nonnull %7) #26
  call void @llvm.lifetime.end.p0(i64 16, ptr nonnull %6) #26
  %28 = getelementptr inbounds %struct.DNSZoneRecord, ptr %4, i64 0, i32 5
  store i8 1, ptr %28, align 8, !tbaa !44
  %29 = call noundef ptr @_ZNKSt3__110unique_ptrI9DNSPacketNS_14default_deleteIS1_EEEptB7v160006Ev(ptr noundef nonnull align 8 dereferenceable(8) %2) #26
  invoke void @_ZN9DNSPacket9addRecordEO13DNSZoneRecord(ptr noundef nonnull align 8 dereferenceable(648) %29, ptr noundef nonnull align 8 dereferenceable(104) %4)
          to label %36 unwind label %32

30:                                               ; preds = %3
  %31 = landingpad { ptr, i32 }
          cleanup
  br label %42

32:                                               ; preds = %24, %15, %10
  %33 = landingpad { ptr, i32 }
          cleanup
  br label %39

34:                                               ; preds = %22
  %35 = landingpad { ptr, i32 }
          cleanup
  call void @llvm.lifetime.end.p0(i64 16, ptr nonnull %7) #26
  call void @llvm.lifetime.end.p0(i64 16, ptr nonnull %6) #26
  br label %39

36:                                               ; preds = %14, %24
  %37 = call noundef ptr @_ZN23NSEC3PARAMRecordContentD1Ev(ptr noundef nonnull align 8 dereferenceable(40) %5) #26
  call void @llvm.lifetime.end.p0(i64 40, ptr nonnull %5) #26
  %38 = call noundef ptr @_ZN13DNSZoneRecordD1Ev(ptr noundef nonnull align 8 dereferenceable(104) %4) #26
  call void @llvm.lifetime.end.p0(i64 104, ptr nonnull %4) #26
  ret i1 %13

39:                                               ; preds = %34, %32
  %40 = phi { ptr, i32 } [ %33, %32 ], [ %35, %34 ]
  %41 = call noundef ptr @_ZN23NSEC3PARAMRecordContentD1Ev(ptr noundef nonnull align 8 dereferenceable(40) %5) #26
  br label %42

42:                                               ; preds = %39, %30
  %43 = phi { ptr, i32 } [ %40, %39 ], [ %31, %30 ]
  call void @llvm.lifetime.end.p0(i64 40, ptr nonnull %5) #26
  %44 = call noundef ptr @_ZN13DNSZoneRecordD1Ev(ptr noundef nonnull align 8 dereferenceable(104) %4) #26
  call void @llvm.lifetime.end.p0(i64 104, ptr nonnull %4) #26
  resume { ptr, i32 } %43
}

; Function Attrs: noinline ssp uwtable(sync)
define linkonce_odr noundef ptr @_ZN23NSEC3PARAMRecordContentC1Ev(ptr noundef nonnull returned align 8 dereferenceable(40) %0) unnamed_addr #0 align 2 {
  %2 = tail call noundef ptr @_ZN23NSEC3PARAMRecordContentC2Ev(ptr noundef nonnull align 8 dereferenceable(40) %0)
  ret ptr %0
}

declare noundef zeroext i1 @_ZN12DNSSECKeeper13getNSEC3PARAMERK7DNSNameP23NSEC3PARAMRecordContentPbb(ptr noundef nonnull align 8 dereferenceable(25), ptr noundef nonnull align 8 dereferenceable(24), ptr noundef, ptr noundef, i1 noundef zeroext) local_unnamed_addr #5

; Function Attrs: mustprogress noinline ssp uwtable(sync)
define linkonce_odr hidden void @_ZNSt3__111make_sharedB7v160006I23NSEC3PARAMRecordContentJRS1_EvEENS_10shared_ptrIT_EEDpOT0_(ptr noalias sret(%"class.std::__1::shared_ptr.115") align 8 %0, ptr noundef nonnull align 8 dereferenceable(40) %1) local_unnamed_addr #4 {
  %3 = alloca %"class.std::__1::allocator.562", align 1
  call void @llvm.lifetime.start.p0(i64 1, ptr nonnull %3) #26
  %4 = call noundef ptr @_ZNSt3__19allocatorI23NSEC3PARAMRecordContentEC1B7v160006Ev(ptr noundef nonnull align 1 dereferenceable(1) %3) #26
  call void @_ZNSt3__115allocate_sharedB7v160006I23NSEC3PARAMRecordContentNS_9allocatorIS1_EEJRS1_EvEENS_10shared_ptrIT_EERKT0_DpOT1_(ptr sret(%"class.std::__1::shared_ptr.115") align 8 %0, ptr noundef nonnull align 1 dereferenceable(1) %3, ptr noundef nonnull align 8 dereferenceable(40) %1)
  call void @llvm.lifetime.end.p0(i64 1, ptr nonnull %3) #26
  ret void
}

; Function Attrs: noinline nounwind ssp uwtable(sync)
define linkonce_odr noundef ptr @_ZNSt3__110shared_ptrIK16DNSRecordContentEC1B7v160006I23NSEC3PARAMRecordContentvEEONS0_IT_EE(ptr noundef nonnull returned align 8 dereferenceable(16) %0, ptr noundef nonnull align 8 dereferenceable(16) %1) unnamed_addr #2 align 2 {
  %3 = tail call noundef ptr @_ZNSt3__110shared_ptrIK16DNSRecordContentEC2B7v160006I23NSEC3PARAMRecordContentvEEONS0_IT_EE(ptr noundef nonnull align 8 dereferenceable(16) %0, ptr noundef nonnull align 8 dereferenceable(16) %1) #26
  ret ptr %0
}

; Function Attrs: noinline nounwind ssp uwtable(sync)
define linkonce_odr hidden noundef ptr @_ZNSt3__110shared_ptrI23NSEC3PARAMRecordContentED1B7v160006Ev(ptr noundef nonnull returned align 8 dereferenceable(16) %0) unnamed_addr #2 align 2 {
  %2 = tail call noundef ptr @_ZNSt3__110shared_ptrI23NSEC3PARAMRecordContentED2B7v160006Ev(ptr noundef nonnull align 8 dereferenceable(16) %0) #26
  ret ptr %0
}

; Function Attrs: noinline nounwind ssp uwtable(sync)
define linkonce_odr noundef ptr @_ZN23NSEC3PARAMRecordContentD1Ev(ptr noundef nonnull returned align 8 dereferenceable(40) %0) unnamed_addr #2 align 2 {
  %2 = tail call noundef ptr @_ZN23NSEC3PARAMRecordContentD2Ev(ptr noundef nonnull align 8 dereferenceable(40) %0) #26
  ret ptr %0
}

; Function Attrs: mustprogress noinline ssp uwtable(sync)
define noundef i32 @_ZNK13PacketHandler14doChaosRequestERK9DNSPacketRNSt3__110unique_ptrIS0_NS3_14default_deleteIS0_EEEER7DNSName(ptr nocapture nonnull readnone align 8 %0, ptr noundef nonnull align 8 dereferenceable(648) %1, ptr noundef nonnull align 8 dereferenceable(8) %2, ptr noundef nonnull align 8 dereferenceable(24) %3) local_unnamed_addr #4 align 2 personality ptr @__gxx_personality_v0 {
  %5 = alloca %struct.DNSZoneRecord, align 8
  %6 = alloca %"class.std::__1::basic_string_view", align 8
  %7 = alloca %"class.std::__1::basic_string_view", align 8
  %8 = alloca %"class.std::__1::basic_string_view", align 8
  %9 = alloca %"class.std::__1::basic_string", align 8
  %10 = alloca %"class.std::__1::basic_string", align 8
  %11 = alloca %"class.std::__1::basic_string", align 8
  %12 = alloca %"class.std::__1::shared_ptr.53", align 8
  %13 = alloca %"class.std::__1::shared_ptr.116", align 8
  %14 = alloca %"class.std::__1::basic_string", align 8
  %15 = alloca %"class.std::__1::basic_string", align 8
  %16 = alloca %"class.std::__1::basic_string", align 8
  %17 = alloca %"class.std::__1::basic_string", align 8
  %18 = alloca %"class.std::__1::basic_string", align 8
  %19 = alloca %"class.std::__1::basic_string", align 8
  %20 = alloca %"class.std::__1::shared_ptr.53", align 8
  %21 = alloca %"class.std::__1::shared_ptr.116", align 8
  call void @llvm.lifetime.start.p0(i64 104, ptr nonnull %5) #26
  %22 = call noundef ptr @_ZN13DNSZoneRecordC1Ev(ptr noundef nonnull align 8 dereferenceable(104) %5)
  %23 = getelementptr inbounds %class.DNSPacket, ptr %1, i64 0, i32 14
  %24 = call noundef zeroext i16 @_ZNK5QType7getCodeEv(ptr noundef nonnull align 2 dereferenceable(2) %23)
  %25 = icmp eq i16 %24, 16
  br i1 %25, label %26, label %254

26:                                               ; preds = %4
  %27 = load atomic i8, ptr @_ZGVZNK13PacketHandler14doChaosRequestERK9DNSPacketRNSt3__110unique_ptrIS0_NS3_14default_deleteIS0_EEEER7DNSNameE11versionbind acquire, align 8
  %28 = and i8 %27, 1
  %29 = icmp eq i8 %28, 0
  br i1 %29, label %30, label %44, !prof !90

30:                                               ; preds = %26
  %31 = call i32 @__cxa_guard_acquire(ptr nonnull @_ZGVZNK13PacketHandler14doChaosRequestERK9DNSPacketRNSt3__110unique_ptrIS0_NS3_14default_deleteIS0_EEEER7DNSNameE11versionbind) #26
  %32 = icmp eq i32 %31, 0
  br i1 %32, label %44, label %33

33:                                               ; preds = %30
  %34 = invoke noundef ptr @_ZNSt3__117basic_string_viewIcNS_11char_traitsIcEEEC1B7v160006EPKc(ptr noundef nonnull align 8 dereferenceable(16) %6, ptr noundef nonnull @.str.15)
          to label %35 unwind label %115

35:                                               ; preds = %33
  %36 = load i64, ptr %6, align 8
  %37 = insertvalue [2 x i64] poison, i64 %36, 0
  %38 = getelementptr inbounds [2 x i64], ptr %6, i64 0, i64 1
  %39 = load i64, ptr %38, align 8
  %40 = insertvalue [2 x i64] %37, i64 %39, 1
  %41 = invoke noundef ptr @_ZN7DNSNameC1ENSt3__117basic_string_viewIcNS0_11char_traitsIcEEEE(ptr noundef nonnull align 8 dereferenceable(24) @_ZZNK13PacketHandler14doChaosRequestERK9DNSPacketRNSt3__110unique_ptrIS0_NS3_14default_deleteIS0_EEEER7DNSNameE11versionbind, [2 x i64] %40)
          to label %42 unwind label %115

42:                                               ; preds = %35
  %43 = call i32 @__cxa_atexit(ptr nonnull @_ZN7DNSNameD1Ev, ptr nonnull @_ZZNK13PacketHandler14doChaosRequestERK9DNSPacketRNSt3__110unique_ptrIS0_NS3_14default_deleteIS0_EEEER7DNSNameE11versionbind, ptr nonnull @__dso_handle) #26
  call void @__cxa_guard_release(ptr nonnull @_ZGVZNK13PacketHandler14doChaosRequestERK9DNSPacketRNSt3__110unique_ptrIS0_NS3_14default_deleteIS0_EEEER7DNSNameE11versionbind) #26
  br label %44

44:                                               ; preds = %42, %30, %26
  %45 = load atomic i8, ptr @_ZGVZNK13PacketHandler14doChaosRequestERK9DNSPacketRNSt3__110unique_ptrIS0_NS3_14default_deleteIS0_EEEER7DNSNameE11versionpdns acquire, align 8
  %46 = and i8 %45, 1
  %47 = icmp eq i8 %46, 0
  br i1 %47, label %48, label %62, !prof !90

48:                                               ; preds = %44
  %49 = call i32 @__cxa_guard_acquire(ptr nonnull @_ZGVZNK13PacketHandler14doChaosRequestERK9DNSPacketRNSt3__110unique_ptrIS0_NS3_14default_deleteIS0_EEEER7DNSNameE11versionpdns) #26
  %50 = icmp eq i32 %49, 0
  br i1 %50, label %62, label %51

51:                                               ; preds = %48
  %52 = invoke noundef ptr @_ZNSt3__117basic_string_viewIcNS_11char_traitsIcEEEC1B7v160006EPKc(ptr noundef nonnull align 8 dereferenceable(16) %7, ptr noundef nonnull @.str.16)
          to label %53 unwind label %117

53:                                               ; preds = %51
  %54 = load i64, ptr %7, align 8
  %55 = insertvalue [2 x i64] poison, i64 %54, 0
  %56 = getelementptr inbounds [2 x i64], ptr %7, i64 0, i64 1
  %57 = load i64, ptr %56, align 8
  %58 = insertvalue [2 x i64] %55, i64 %57, 1
  %59 = invoke noundef ptr @_ZN7DNSNameC1ENSt3__117basic_string_viewIcNS0_11char_traitsIcEEEE(ptr noundef nonnull align 8 dereferenceable(24) @_ZZNK13PacketHandler14doChaosRequestERK9DNSPacketRNSt3__110unique_ptrIS0_NS3_14default_deleteIS0_EEEER7DNSNameE11versionpdns, [2 x i64] %58)
          to label %60 unwind label %117

60:                                               ; preds = %53
  %61 = call i32 @__cxa_atexit(ptr nonnull @_ZN7DNSNameD1Ev, ptr nonnull @_ZZNK13PacketHandler14doChaosRequestERK9DNSPacketRNSt3__110unique_ptrIS0_NS3_14default_deleteIS0_EEEER7DNSNameE11versionpdns, ptr nonnull @__dso_handle) #26
  call void @__cxa_guard_release(ptr nonnull @_ZGVZNK13PacketHandler14doChaosRequestERK9DNSPacketRNSt3__110unique_ptrIS0_NS3_14default_deleteIS0_EEEER7DNSNameE11versionpdns) #26
  br label %62

62:                                               ; preds = %60, %48, %44
  %63 = load atomic i8, ptr @_ZGVZNK13PacketHandler14doChaosRequestERK9DNSPacketRNSt3__110unique_ptrIS0_NS3_14default_deleteIS0_EEEER7DNSNameE8idserver acquire, align 8
  %64 = and i8 %63, 1
  %65 = icmp eq i8 %64, 0
  br i1 %65, label %66, label %80, !prof !90

66:                                               ; preds = %62
  %67 = call i32 @__cxa_guard_acquire(ptr nonnull @_ZGVZNK13PacketHandler14doChaosRequestERK9DNSPacketRNSt3__110unique_ptrIS0_NS3_14default_deleteIS0_EEEER7DNSNameE8idserver) #26
  %68 = icmp eq i32 %67, 0
  br i1 %68, label %80, label %69

69:                                               ; preds = %66
  %70 = invoke noundef ptr @_ZNSt3__117basic_string_viewIcNS_11char_traitsIcEEEC1B7v160006EPKc(ptr noundef nonnull align 8 dereferenceable(16) %8, ptr noundef nonnull @.str.17)
          to label %71 unwind label %119

71:                                               ; preds = %69
  %72 = load i64, ptr %8, align 8
  %73 = insertvalue [2 x i64] poison, i64 %72, 0
  %74 = getelementptr inbounds [2 x i64], ptr %8, i64 0, i64 1
  %75 = load i64, ptr %74, align 8
  %76 = insertvalue [2 x i64] %73, i64 %75, 1
  %77 = invoke noundef ptr @_ZN7DNSNameC1ENSt3__117basic_string_viewIcNS0_11char_traitsIcEEEE(ptr noundef nonnull align 8 dereferenceable(24) @_ZZNK13PacketHandler14doChaosRequestERK9DNSPacketRNSt3__110unique_ptrIS0_NS3_14default_deleteIS0_EEEER7DNSNameE8idserver, [2 x i64] %76)
          to label %78 unwind label %119

78:                                               ; preds = %71
  %79 = call i32 @__cxa_atexit(ptr nonnull @_ZN7DNSNameD1Ev, ptr nonnull @_ZZNK13PacketHandler14doChaosRequestERK9DNSPacketRNSt3__110unique_ptrIS0_NS3_14default_deleteIS0_EEEER7DNSNameE8idserver, ptr nonnull @__dso_handle) #26
  call void @__cxa_guard_release(ptr nonnull @_ZGVZNK13PacketHandler14doChaosRequestERK9DNSPacketRNSt3__110unique_ptrIS0_NS3_14default_deleteIS0_EEEER7DNSNameE8idserver) #26
  br label %80

80:                                               ; preds = %78, %66, %62
  %81 = invoke noundef zeroext i1 @_ZNK7DNSNameeqERKS_(ptr noundef nonnull align 8 dereferenceable(24) %3, ptr noundef nonnull align 8 dereferenceable(24) @_ZZNK13PacketHandler14doChaosRequestERK9DNSPacketRNSt3__110unique_ptrIS0_NS3_14default_deleteIS0_EEEER7DNSNameE11versionbind)
          to label %82 unwind label %113

82:                                               ; preds = %80
  br i1 %81, label %86, label %83

83:                                               ; preds = %82
  %84 = invoke noundef zeroext i1 @_ZNK7DNSNameeqERKS_(ptr noundef nonnull align 8 dereferenceable(24) %3, ptr noundef nonnull align 8 dereferenceable(24) @_ZZNK13PacketHandler14doChaosRequestERK9DNSPacketRNSt3__110unique_ptrIS0_NS3_14default_deleteIS0_EEEER7DNSNameE11versionpdns)
          to label %85 unwind label %113

85:                                               ; preds = %83
  br i1 %84, label %86, label %174

86:                                               ; preds = %85, %82
  %87 = load atomic i8, ptr @_ZGVZNK13PacketHandler14doChaosRequestERK9DNSPacketRNSt3__110unique_ptrIS0_NS3_14default_deleteIS0_EEEER7DNSNameE4mode acquire, align 8
  %88 = and i8 %87, 1
  %89 = icmp eq i8 %88, 0
  br i1 %89, label %90, label %104, !prof !90

90:                                               ; preds = %86
  %91 = call i32 @__cxa_guard_acquire(ptr nonnull @_ZGVZNK13PacketHandler14doChaosRequestERK9DNSPacketRNSt3__110unique_ptrIS0_NS3_14default_deleteIS0_EEEER7DNSNameE4mode) #26
  %92 = icmp eq i32 %91, 0
  br i1 %92, label %104, label %93

93:                                               ; preds = %90
  %94 = invoke noundef nonnull align 8 dereferenceable(168) ptr @_Z3argv()
          to label %95 unwind label %121

95:                                               ; preds = %93
  call void @llvm.lifetime.start.p0(i64 24, ptr nonnull %9) #26
  %96 = invoke noundef ptr @_ZNSt3__112basic_stringIcNS_11char_traitsIcEENS_9allocatorIcEEEC1B7v160006IDnEEPKc(ptr noundef nonnull align 8 dereferenceable(24) %9, ptr noundef nonnull @.str.18)
          to label %97 unwind label %123

97:                                               ; preds = %95
  %98 = invoke noundef nonnull align 8 dereferenceable(24) ptr @_ZN7ArgvMapixERKNSt3__112basic_stringIcNS0_11char_traitsIcEENS0_9allocatorIcEEEE(ptr noundef nonnull align 8 dereferenceable(168) %94, ptr noundef nonnull align 8 dereferenceable(24) %9)
          to label %99 unwind label %125

99:                                               ; preds = %97
  %100 = invoke noundef ptr @_ZNSt3__112basic_stringIcNS_11char_traitsIcEENS_9allocatorIcEEEC1ERKS5_(ptr noundef nonnull align 8 dereferenceable(24) @_ZZNK13PacketHandler14doChaosRequestERK9DNSPacketRNSt3__110unique_ptrIS0_NS3_14default_deleteIS0_EEEER7DNSNameE4mode, ptr noundef nonnull align 8 dereferenceable(24) %98)
          to label %101 unwind label %125

101:                                              ; preds = %99
  %102 = call noundef ptr @_ZNSt3__112basic_stringIcNS_11char_traitsIcEENS_9allocatorIcEEED1Ev(ptr noundef nonnull align 8 dereferenceable(24) %9) #26
  call void @llvm.lifetime.end.p0(i64 24, ptr nonnull %9) #26
  %103 = call i32 @__cxa_atexit(ptr nonnull @_ZNSt3__112basic_stringIcNS_11char_traitsIcEENS_9allocatorIcEEED1Ev, ptr nonnull @_ZZNK13PacketHandler14doChaosRequestERK9DNSPacketRNSt3__110unique_ptrIS0_NS3_14default_deleteIS0_EEEER7DNSNameE4mode, ptr nonnull @__dso_handle) #26
  call void @__cxa_guard_release(ptr nonnull @_ZGVZNK13PacketHandler14doChaosRequestERK9DNSPacketRNSt3__110unique_ptrIS0_NS3_14default_deleteIS0_EEEER7DNSNameE4mode) #26
  br label %104

104:                                              ; preds = %101, %90, %86
  call void @llvm.lifetime.start.p0(i64 24, ptr nonnull %10) #26
  %105 = call noundef ptr @_ZNSt3__112basic_stringIcNS_11char_traitsIcEENS_9allocatorIcEEEC1B7v160006Ev(ptr noundef nonnull align 8 dereferenceable(24) %10) #26
  %106 = call noundef zeroext i1 @_ZNKSt3__112basic_stringIcNS_11char_traitsIcEENS_9allocatorIcEEE5emptyB7v160006Ev(ptr noundef nonnull align 8 dereferenceable(24) @_ZZNK13PacketHandler14doChaosRequestERK9DNSPacketRNSt3__110unique_ptrIS0_NS3_14default_deleteIS0_EEEER7DNSNameE4mode) #26
  br i1 %106, label %109, label %107

107:                                              ; preds = %104
  %108 = call noundef zeroext i1 @_ZNSt3__1eqB7v160006IcNS_11char_traitsIcEENS_9allocatorIcEEEEbRKNS_12basic_stringIT_T0_T1_EEPKS6_(ptr noundef nonnull align 8 dereferenceable(24) @_ZZNK13PacketHandler14doChaosRequestERK9DNSPacketRNSt3__110unique_ptrIS0_NS3_14default_deleteIS0_EEEER7DNSNameE4mode, ptr noundef nonnull @.str.19) #26
  br i1 %108, label %109, label %134

109:                                              ; preds = %107, %104
  call void @llvm.lifetime.start.p0(i64 24, ptr nonnull %11) #26
  invoke void @_Z17fullVersionStringv(ptr nonnull sret(%"class.std::__1::basic_string") align 8 %11)
          to label %110 unwind label %132

110:                                              ; preds = %109
  %111 = call noundef nonnull align 8 dereferenceable(24) ptr @_ZNSt3__112basic_stringIcNS_11char_traitsIcEENS_9allocatorIcEEEaSB7v160006EOS5_(ptr noundef nonnull align 8 dereferenceable(24) %10, ptr noundef nonnull align 8 dereferenceable(24) %11) #26
  %112 = call noundef ptr @_ZNSt3__112basic_stringIcNS_11char_traitsIcEENS_9allocatorIcEEED1Ev(ptr noundef nonnull align 8 dereferenceable(24) %11) #26
  call void @llvm.lifetime.end.p0(i64 24, ptr nonnull %11) #26
  br label %146

113:                                              ; preds = %254, %249, %245, %174, %83, %80
  %114 = landingpad { ptr, i32 }
          cleanup
  br label %260

115:                                              ; preds = %35, %33
  %116 = landingpad { ptr, i32 }
          cleanup
  call void @__cxa_guard_abort(ptr nonnull @_ZGVZNK13PacketHandler14doChaosRequestERK9DNSPacketRNSt3__110unique_ptrIS0_NS3_14default_deleteIS0_EEEER7DNSNameE11versionbind) #26
  br label %260

117:                                              ; preds = %53, %51
  %118 = landingpad { ptr, i32 }
          cleanup
  call void @__cxa_guard_abort(ptr nonnull @_ZGVZNK13PacketHandler14doChaosRequestERK9DNSPacketRNSt3__110unique_ptrIS0_NS3_14default_deleteIS0_EEEER7DNSNameE11versionpdns) #26
  br label %260

119:                                              ; preds = %71, %69
  %120 = landingpad { ptr, i32 }
          cleanup
  call void @__cxa_guard_abort(ptr nonnull @_ZGVZNK13PacketHandler14doChaosRequestERK9DNSPacketRNSt3__110unique_ptrIS0_NS3_14default_deleteIS0_EEEER7DNSNameE8idserver) #26
  br label %260

121:                                              ; preds = %93
  %122 = landingpad { ptr, i32 }
          cleanup
  br label %130

123:                                              ; preds = %95
  %124 = landingpad { ptr, i32 }
          cleanup
  br label %128

125:                                              ; preds = %99, %97
  %126 = landingpad { ptr, i32 }
          cleanup
  %127 = call noundef ptr @_ZNSt3__112basic_stringIcNS_11char_traitsIcEENS_9allocatorIcEEED1Ev(ptr noundef nonnull align 8 dereferenceable(24) %9) #26
  br label %128

128:                                              ; preds = %125, %123
  %129 = phi { ptr, i32 } [ %126, %125 ], [ %124, %123 ]
  call void @llvm.lifetime.end.p0(i64 24, ptr nonnull %9) #26
  br label %130

130:                                              ; preds = %128, %121
  %131 = phi { ptr, i32 } [ %129, %128 ], [ %122, %121 ]
  call void @__cxa_guard_abort(ptr nonnull @_ZGVZNK13PacketHandler14doChaosRequestERK9DNSPacketRNSt3__110unique_ptrIS0_NS3_14default_deleteIS0_EEEER7DNSNameE4mode) #26
  br label %260

132:                                              ; preds = %109
  %133 = landingpad { ptr, i32 }
          cleanup
  call void @llvm.lifetime.end.p0(i64 24, ptr nonnull %11) #26
  br label %171

134:                                              ; preds = %107
  %135 = call noundef zeroext i1 @_ZNSt3__1eqB7v160006IcNS_11char_traitsIcEENS_9allocatorIcEEEEbRKNS_12basic_stringIT_T0_T1_EEPKS6_(ptr noundef nonnull align 8 dereferenceable(24) @_ZZNK13PacketHandler14doChaosRequestERK9DNSPacketRNSt3__110unique_ptrIS0_NS3_14default_deleteIS0_EEEER7DNSNameE4mode, ptr noundef nonnull @.str.20) #26
  br i1 %135, label %136, label %140

136:                                              ; preds = %134
  %137 = invoke noundef nonnull align 8 dereferenceable(24) ptr @_ZNSt3__112basic_stringIcNS_11char_traitsIcEENS_9allocatorIcEEEaSB7v160006EPKc(ptr noundef nonnull align 8 dereferenceable(24) %10, ptr noundef nonnull @.str.21)
          to label %146 unwind label %138

138:                                              ; preds = %144, %142, %136
  %139 = landingpad { ptr, i32 }
          cleanup
  br label %171

140:                                              ; preds = %134
  %141 = call noundef zeroext i1 @_ZNSt3__1eqB7v160006IcNS_11char_traitsIcEENS_9allocatorIcEEEEbRKNS_12basic_stringIT_T0_T1_EEPKS6_(ptr noundef nonnull align 8 dereferenceable(24) @_ZZNK13PacketHandler14doChaosRequestERK9DNSPacketRNSt3__110unique_ptrIS0_NS3_14default_deleteIS0_EEEER7DNSNameE4mode, ptr noundef nonnull @.str.22) #26
  br i1 %141, label %142, label %144

142:                                              ; preds = %140
  %143 = call noundef ptr @_ZNKSt3__110unique_ptrI9DNSPacketNS_14default_deleteIS1_EEEptB7v160006Ev(ptr noundef nonnull align 8 dereferenceable(8) %2) #26
  invoke void @_ZN9DNSPacket8setRcodeEi(ptr noundef nonnull align 8 dereferenceable(648) %143, i32 noundef 2)
          to label %157 unwind label %138

144:                                              ; preds = %140
  %145 = invoke noundef nonnull align 8 dereferenceable(24) ptr @_ZNSt3__112basic_stringIcNS_11char_traitsIcEENS_9allocatorIcEEEaSERKS5_(ptr noundef nonnull align 8 dereferenceable(24) %10, ptr noundef nonnull align 8 dereferenceable(24) @_ZZNK13PacketHandler14doChaosRequestERK9DNSPacketRNSt3__110unique_ptrIS0_NS3_14default_deleteIS0_EEEER7DNSNameE4mode)
          to label %146 unwind label %138

146:                                              ; preds = %136, %144, %110
  %147 = getelementptr inbounds %struct.DNSZoneRecord, ptr %5, i64 0, i32 8
  call void @llvm.lifetime.start.p0(i64 16, ptr nonnull %12) #26
  call void @llvm.lifetime.start.p0(i64 16, ptr nonnull %13) #26
  call void @llvm.lifetime.start.p0(i64 24, ptr nonnull %14) #26
  call void @llvm.lifetime.start.p0(i64 24, ptr nonnull %15) #26
  invoke void @_ZNSt3__1plIcNS_11char_traitsIcEENS_9allocatorIcEEEENS_12basic_stringIT_T0_T1_EEPKS6_RKS9_(ptr nonnull sret(%"class.std::__1::basic_string") align 8 %15, ptr noundef nonnull @.str.23, ptr noundef nonnull align 8 dereferenceable(24) %10)
          to label %148 unwind label %159

148:                                              ; preds = %146
  invoke void @_ZNSt3__1plB7v160006IcNS_11char_traitsIcEENS_9allocatorIcEEEENS_12basic_stringIT_T0_T1_EEOS9_PKS6_(ptr nonnull sret(%"class.std::__1::basic_string") align 8 %14, ptr noundef nonnull align 8 dereferenceable(24) %15, ptr noundef nonnull @.str.23)
          to label %149 unwind label %161

149:                                              ; preds = %148
  invoke void @_ZN16DNSRecordContent10mastermakeEttRKNSt3__112basic_stringIcNS0_11char_traitsIcEENS0_9allocatorIcEEEE(ptr nonnull sret(%"class.std::__1::shared_ptr.116") align 8 %13, i16 noundef zeroext 16, i16 noundef zeroext 1, ptr noundef nonnull align 8 dereferenceable(24) %14)
          to label %150 unwind label %163

150:                                              ; preds = %149
  %151 = call noundef ptr @_ZNSt3__110shared_ptrIK16DNSRecordContentEC1B7v160006IS1_vEEONS0_IT_EE(ptr noundef nonnull align 8 dereferenceable(16) %12, ptr noundef nonnull align 8 dereferenceable(16) %13) #26
  call void @_ZN9DNSRecord10setContentEONSt3__110shared_ptrIK16DNSRecordContentEE(ptr noundef nonnull align 8 dereferenceable(51) %147, ptr noundef nonnull align 8 dereferenceable(16) %12)
  %152 = call noundef ptr @_ZNSt3__110shared_ptrIK16DNSRecordContentED1B7v160006Ev(ptr noundef nonnull align 8 dereferenceable(16) %12) #26
  %153 = call noundef ptr @_ZNSt3__110shared_ptrI16DNSRecordContentED1B7v160006Ev(ptr noundef nonnull align 8 dereferenceable(16) %13) #26
  %154 = call noundef ptr @_ZNSt3__112basic_stringIcNS_11char_traitsIcEENS_9allocatorIcEEED1Ev(ptr noundef nonnull align 8 dereferenceable(24) %14) #26
  %155 = call noundef ptr @_ZNSt3__112basic_stringIcNS_11char_traitsIcEENS_9allocatorIcEEED1Ev(ptr noundef nonnull align 8 dereferenceable(24) %15) #26
  call void @llvm.lifetime.end.p0(i64 24, ptr nonnull %15) #26
  call void @llvm.lifetime.end.p0(i64 24, ptr nonnull %14) #26
  call void @llvm.lifetime.end.p0(i64 16, ptr nonnull %13) #26
  call void @llvm.lifetime.end.p0(i64 16, ptr nonnull %12) #26
  %156 = call noundef ptr @_ZNSt3__112basic_stringIcNS_11char_traitsIcEENS_9allocatorIcEEED1Ev(ptr noundef nonnull align 8 dereferenceable(24) %10) #26
  call void @llvm.lifetime.end.p0(i64 24, ptr nonnull %10) #26
  br label %245

157:                                              ; preds = %142
  %158 = call noundef ptr @_ZNSt3__112basic_stringIcNS_11char_traitsIcEENS_9allocatorIcEEED1Ev(ptr noundef nonnull align 8 dereferenceable(24) %10) #26
  call void @llvm.lifetime.end.p0(i64 24, ptr nonnull %10) #26
  br label %257

159:                                              ; preds = %146
  %160 = landingpad { ptr, i32 }
          cleanup
  br label %169

161:                                              ; preds = %148
  %162 = landingpad { ptr, i32 }
          cleanup
  br label %166

163:                                              ; preds = %149
  %164 = landingpad { ptr, i32 }
          cleanup
  %165 = call noundef ptr @_ZNSt3__112basic_stringIcNS_11char_traitsIcEENS_9allocatorIcEEED1Ev(ptr noundef nonnull align 8 dereferenceable(24) %14) #26
  br label %166

166:                                              ; preds = %163, %161
  %167 = phi { ptr, i32 } [ %164, %163 ], [ %162, %161 ]
  %168 = call noundef ptr @_ZNSt3__112basic_stringIcNS_11char_traitsIcEENS_9allocatorIcEEED1Ev(ptr noundef nonnull align 8 dereferenceable(24) %15) #26
  br label %169

169:                                              ; preds = %166, %159
  %170 = phi { ptr, i32 } [ %167, %166 ], [ %160, %159 ]
  call void @llvm.lifetime.end.p0(i64 24, ptr nonnull %15) #26
  call void @llvm.lifetime.end.p0(i64 24, ptr nonnull %14) #26
  call void @llvm.lifetime.end.p0(i64 16, ptr nonnull %13) #26
  call void @llvm.lifetime.end.p0(i64 16, ptr nonnull %12) #26
  br label %171

171:                                              ; preds = %169, %138, %132
  %172 = phi { ptr, i32 } [ %170, %169 ], [ %133, %132 ], [ %139, %138 ]
  %173 = call noundef ptr @_ZNSt3__112basic_stringIcNS_11char_traitsIcEENS_9allocatorIcEEED1Ev(ptr noundef nonnull align 8 dereferenceable(24) %10) #26
  call void @llvm.lifetime.end.p0(i64 24, ptr nonnull %10) #26
  br label %260

174:                                              ; preds = %85
  %175 = invoke noundef zeroext i1 @_ZNK7DNSNameeqERKS_(ptr noundef nonnull align 8 dereferenceable(24) %3, ptr noundef nonnull align 8 dereferenceable(24) @_ZZNK13PacketHandler14doChaosRequestERK9DNSPacketRNSt3__110unique_ptrIS0_NS3_14default_deleteIS0_EEEER7DNSNameE8idserver)
          to label %176 unwind label %113

176:                                              ; preds = %174
  br i1 %175, label %177, label %254

177:                                              ; preds = %176
  %178 = load atomic i8, ptr @_ZGVZNK13PacketHandler14doChaosRequestERK9DNSPacketRNSt3__110unique_ptrIS0_NS3_14default_deleteIS0_EEEER7DNSNameE2id acquire, align 8
  %179 = and i8 %178, 1
  %180 = icmp eq i8 %179, 0
  br i1 %180, label %181, label %195, !prof !90

181:                                              ; preds = %177
  %182 = call i32 @__cxa_guard_acquire(ptr nonnull @_ZGVZNK13PacketHandler14doChaosRequestERK9DNSPacketRNSt3__110unique_ptrIS0_NS3_14default_deleteIS0_EEEER7DNSNameE2id) #26
  %183 = icmp eq i32 %182, 0
  br i1 %183, label %195, label %184

184:                                              ; preds = %181
  %185 = invoke noundef nonnull align 8 dereferenceable(168) ptr @_Z3argv()
          to label %186 unwind label %197

186:                                              ; preds = %184
  call void @llvm.lifetime.start.p0(i64 24, ptr nonnull %16) #26
  %187 = invoke noundef ptr @_ZNSt3__112basic_stringIcNS_11char_traitsIcEENS_9allocatorIcEEEC1B7v160006IDnEEPKc(ptr noundef nonnull align 8 dereferenceable(24) %16, ptr noundef nonnull @.str.24)
          to label %188 unwind label %199

188:                                              ; preds = %186
  %189 = invoke noundef nonnull align 8 dereferenceable(24) ptr @_ZN7ArgvMapixERKNSt3__112basic_stringIcNS0_11char_traitsIcEENS0_9allocatorIcEEEE(ptr noundef nonnull align 8 dereferenceable(168) %185, ptr noundef nonnull align 8 dereferenceable(24) %16)
          to label %190 unwind label %201

190:                                              ; preds = %188
  %191 = invoke noundef ptr @_ZNSt3__112basic_stringIcNS_11char_traitsIcEENS_9allocatorIcEEEC1ERKS5_(ptr noundef nonnull align 8 dereferenceable(24) @_ZZNK13PacketHandler14doChaosRequestERK9DNSPacketRNSt3__110unique_ptrIS0_NS3_14default_deleteIS0_EEEER7DNSNameE2id, ptr noundef nonnull align 8 dereferenceable(24) %189)
          to label %192 unwind label %201

192:                                              ; preds = %190
  %193 = call noundef ptr @_ZNSt3__112basic_stringIcNS_11char_traitsIcEENS_9allocatorIcEEED1Ev(ptr noundef nonnull align 8 dereferenceable(24) %16) #26
  call void @llvm.lifetime.end.p0(i64 24, ptr nonnull %16) #26
  %194 = call i32 @__cxa_atexit(ptr nonnull @_ZNSt3__112basic_stringIcNS_11char_traitsIcEENS_9allocatorIcEEED1Ev, ptr nonnull @_ZZNK13PacketHandler14doChaosRequestERK9DNSPacketRNSt3__110unique_ptrIS0_NS3_14default_deleteIS0_EEEER7DNSNameE2id, ptr nonnull @__dso_handle) #26
  call void @__cxa_guard_release(ptr nonnull @_ZGVZNK13PacketHandler14doChaosRequestERK9DNSPacketRNSt3__110unique_ptrIS0_NS3_14default_deleteIS0_EEEER7DNSNameE2id) #26
  br label %195

195:                                              ; preds = %192, %181, %177
  %196 = call noundef zeroext i1 @_ZNSt3__1eqB7v160006IcNS_11char_traitsIcEENS_9allocatorIcEEEEbRKNS_12basic_stringIT_T0_T1_EEPKS6_(ptr noundef nonnull align 8 dereferenceable(24) @_ZZNK13PacketHandler14doChaosRequestERK9DNSPacketRNSt3__110unique_ptrIS0_NS3_14default_deleteIS0_EEEER7DNSNameE2id, ptr noundef nonnull @.str.25) #26
  br i1 %196, label %254, label %208

197:                                              ; preds = %184
  %198 = landingpad { ptr, i32 }
          cleanup
  br label %206

199:                                              ; preds = %186
  %200 = landingpad { ptr, i32 }
          cleanup
  br label %204

201:                                              ; preds = %190, %188
  %202 = landingpad { ptr, i32 }
          cleanup
  %203 = call noundef ptr @_ZNSt3__112basic_stringIcNS_11char_traitsIcEENS_9allocatorIcEEED1Ev(ptr noundef nonnull align 8 dereferenceable(24) %16) #26
  br label %204

204:                                              ; preds = %201, %199
  %205 = phi { ptr, i32 } [ %202, %201 ], [ %200, %199 ]
  call void @llvm.lifetime.end.p0(i64 24, ptr nonnull %16) #26
  br label %206

206:                                              ; preds = %204, %197
  %207 = phi { ptr, i32 } [ %205, %204 ], [ %198, %197 ]
  call void @__cxa_guard_abort(ptr nonnull @_ZGVZNK13PacketHandler14doChaosRequestERK9DNSPacketRNSt3__110unique_ptrIS0_NS3_14default_deleteIS0_EEEER7DNSNameE2id) #26
  br label %260

208:                                              ; preds = %195
  call void @llvm.lifetime.start.p0(i64 24, ptr nonnull %17) #26
  %209 = invoke noundef ptr @_ZNSt3__112basic_stringIcNS_11char_traitsIcEENS_9allocatorIcEEEC1ERKS5_(ptr noundef nonnull align 8 dereferenceable(24) %17, ptr noundef nonnull align 8 dereferenceable(24) @_ZZNK13PacketHandler14doChaosRequestERK9DNSPacketRNSt3__110unique_ptrIS0_NS3_14default_deleteIS0_EEEER7DNSNameE2id)
          to label %210 unwind label %222

210:                                              ; preds = %208
  %211 = call noundef zeroext i1 @_ZNKSt3__112basic_stringIcNS_11char_traitsIcEENS_9allocatorIcEEE5emptyB7v160006Ev(ptr noundef nonnull align 8 dereferenceable(24) %17) #26
  br i1 %211, label %231, label %212

212:                                              ; preds = %210
  %213 = call noundef nonnull align 1 dereferenceable(1) ptr @_ZNSt3__112basic_stringIcNS_11char_traitsIcEENS_9allocatorIcEEEixB7v160006Em(ptr noundef nonnull align 8 dereferenceable(24) %17, i64 noundef 0) #26
  %214 = load i8, ptr %213, align 1, !tbaa !91
  %215 = icmp eq i8 %214, 34
  br i1 %215, label %231, label %216

216:                                              ; preds = %212
  call void @llvm.lifetime.start.p0(i64 24, ptr nonnull %18) #26
  call void @llvm.lifetime.start.p0(i64 24, ptr nonnull %19) #26
  invoke void @_ZNSt3__1plIcNS_11char_traitsIcEENS_9allocatorIcEEEENS_12basic_stringIT_T0_T1_EEPKS6_RKS9_(ptr nonnull sret(%"class.std::__1::basic_string") align 8 %19, ptr noundef nonnull @.str.23, ptr noundef nonnull align 8 dereferenceable(24) %17)
          to label %217 unwind label %224

217:                                              ; preds = %216
  invoke void @_ZNSt3__1plB7v160006IcNS_11char_traitsIcEENS_9allocatorIcEEEENS_12basic_stringIT_T0_T1_EEOS9_PKS6_(ptr nonnull sret(%"class.std::__1::basic_string") align 8 %18, ptr noundef nonnull align 8 dereferenceable(24) %19, ptr noundef nonnull @.str.23)
          to label %218 unwind label %226

218:                                              ; preds = %217
  %219 = call noundef nonnull align 8 dereferenceable(24) ptr @_ZNSt3__112basic_stringIcNS_11char_traitsIcEENS_9allocatorIcEEEaSB7v160006EOS5_(ptr noundef nonnull align 8 dereferenceable(24) %17, ptr noundef nonnull align 8 dereferenceable(24) %18) #26
  %220 = call noundef ptr @_ZNSt3__112basic_stringIcNS_11char_traitsIcEENS_9allocatorIcEEED1Ev(ptr noundef nonnull align 8 dereferenceable(24) %18) #26
  %221 = call noundef ptr @_ZNSt3__112basic_stringIcNS_11char_traitsIcEENS_9allocatorIcEEED1Ev(ptr noundef nonnull align 8 dereferenceable(24) %19) #26
  call void @llvm.lifetime.end.p0(i64 24, ptr nonnull %19) #26
  call void @llvm.lifetime.end.p0(i64 24, ptr nonnull %18) #26
  br label %231

222:                                              ; preds = %208
  %223 = landingpad { ptr, i32 }
          cleanup
  br label %243

224:                                              ; preds = %216
  %225 = landingpad { ptr, i32 }
          cleanup
  br label %229

226:                                              ; preds = %217
  %227 = landingpad { ptr, i32 }
          cleanup
  %228 = call noundef ptr @_ZNSt3__112basic_stringIcNS_11char_traitsIcEENS_9allocatorIcEEED1Ev(ptr noundef nonnull align 8 dereferenceable(24) %19) #26
  br label %229

229:                                              ; preds = %226, %224
  %230 = phi { ptr, i32 } [ %227, %226 ], [ %225, %224 ]
  call void @llvm.lifetime.end.p0(i64 24, ptr nonnull %19) #26
  call void @llvm.lifetime.end.p0(i64 24, ptr nonnull %18) #26
  br label %240

231:                                              ; preds = %218, %212, %210
  call void @llvm.lifetime.start.p0(i64 16, ptr nonnull %20) #26
  call void @llvm.lifetime.start.p0(i64 16, ptr nonnull %21) #26
  invoke void @_ZN16DNSRecordContent10mastermakeEttRKNSt3__112basic_stringIcNS0_11char_traitsIcEENS0_9allocatorIcEEEE(ptr nonnull sret(%"class.std::__1::shared_ptr.116") align 8 %21, i16 noundef zeroext 16, i16 noundef zeroext 1, ptr noundef nonnull align 8 dereferenceable(24) %17)
          to label %232 unwind label %238

232:                                              ; preds = %231
  %233 = getelementptr inbounds %struct.DNSZoneRecord, ptr %5, i64 0, i32 8
  %234 = call noundef ptr @_ZNSt3__110shared_ptrIK16DNSRecordContentEC1B7v160006IS1_vEEONS0_IT_EE(ptr noundef nonnull align 8 dereferenceable(16) %20, ptr noundef nonnull align 8 dereferenceable(16) %21) #26
  call void @_ZN9DNSRecord10setContentEONSt3__110shared_ptrIK16DNSRecordContentEE(ptr noundef nonnull align 8 dereferenceable(51) %233, ptr noundef nonnull align 8 dereferenceable(16) %20)
  %235 = call noundef ptr @_ZNSt3__110shared_ptrIK16DNSRecordContentED1B7v160006Ev(ptr noundef nonnull align 8 dereferenceable(16) %20) #26
  %236 = call noundef ptr @_ZNSt3__110shared_ptrI16DNSRecordContentED1B7v160006Ev(ptr noundef nonnull align 8 dereferenceable(16) %21) #26
  call void @llvm.lifetime.end.p0(i64 16, ptr nonnull %21) #26
  call void @llvm.lifetime.end.p0(i64 16, ptr nonnull %20) #26
  %237 = call noundef ptr @_ZNSt3__112basic_stringIcNS_11char_traitsIcEENS_9allocatorIcEEED1Ev(ptr noundef nonnull align 8 dereferenceable(24) %17) #26
  call void @llvm.lifetime.end.p0(i64 24, ptr nonnull %17) #26
  br label %245

238:                                              ; preds = %231
  %239 = landingpad { ptr, i32 }
          cleanup
  call void @llvm.lifetime.end.p0(i64 16, ptr nonnull %21) #26
  call void @llvm.lifetime.end.p0(i64 16, ptr nonnull %20) #26
  br label %240

240:                                              ; preds = %238, %229
  %241 = phi { ptr, i32 } [ %239, %238 ], [ %230, %229 ]
